
build/kernel/kernel:     file format elf32-i386


Disassembly of section .text:

00101000 <init_proc>:
  101000:	55                   	push   %ebp
  101001:	89 e5                	mov    %esp,%ebp
  101003:	53                   	push   %ebx
  101004:	83 ec 04             	sub    $0x4,%esp
  101007:	8b 1d 40 65 10 00    	mov    0x106540,%ebx
  10100d:	c7 43 04 02 00 00 00 	movl   $0x2,0x4(%ebx)
  101014:	c7 43 0c c4 ff 1f 00 	movl   $0x1fffc4,0xc(%ebx)
  10101b:	c7 43 08 00 f0 1f 00 	movl   $0x1ff000,0x8(%ebx)
  101022:	e8 4b 1b 00 00       	call   102b72 <vm_curr>
  101027:	89 43 10             	mov    %eax,0x10(%ebx)
  10102a:	a1 40 65 10 00       	mov    0x106540,%eax
  10102f:	c7 40 1c 00 00 00 00 	movl   $0x0,0x1c(%eax)
  101036:	c7 40 18 00 00 00 00 	movl   $0x0,0x18(%eax)
  10103d:	83 ec 08             	sub    $0x8,%esp
  101040:	6a 00                	push   $0x0
  101042:	83 c0 24             	add    $0x24,%eax
  101045:	50                   	push   %eax
  101046:	e8 84 0e 00 00       	call   101ecf <sem_init>
  10104b:	83 c4 0c             	add    $0xc,%esp
  10104e:	68 80 00 00 00       	push   $0x80
  101053:	6a 00                	push   $0x0
  101055:	a1 40 65 10 00       	mov    0x106540,%eax
  10105a:	83 c0 34             	add    $0x34,%eax
  10105d:	50                   	push   %eax
  10105e:	e8 f0 34 00 00       	call   104553 <memset>
  101063:	a1 40 65 10 00       	mov    0x106540,%eax
  101068:	c7 80 b4 00 00 00 00 	movl   $0x0,0xb4(%eax)
  10106f:	00 00 00 
  101072:	c7 80 b8 00 00 00 01 	movl   $0x1,0xb8(%eax)
  101079:	00 00 00 
  10107c:	c7 80 c0 00 00 00 00 	movl   $0x0,0xc0(%eax)
  101083:	00 00 00 
  101086:	c7 80 bc 00 00 00 00 	movl   $0x0,0xbc(%eax)
  10108d:	00 00 00 
  101090:	83 c4 10             	add    $0x10,%esp
  101093:	8b 5d fc             	mov    -0x4(%ebp),%ebx
  101096:	c9                   	leave  
  101097:	c3                   	ret    

00101098 <proc_alloc>:
  101098:	55                   	push   %ebp
  101099:	89 e5                	mov    %esp,%ebp
  10109b:	56                   	push   %esi
  10109c:	53                   	push   %ebx
  10109d:	be 04 70 10 00       	mov    $0x107004,%esi
  1010a2:	bb 00 00 00 00       	mov    $0x0,%ebx
  1010a7:	e8 58 19 00 00       	call   102a04 <kalloc>
  1010ac:	83 3e 00             	cmpl   $0x0,(%esi)
  1010af:	74 16                	je     1010c7 <proc_alloc+0x2f>
  1010b1:	43                   	inc    %ebx
  1010b2:	81 c6 c4 00 00 00    	add    $0xc4,%esi
  1010b8:	83 fb 40             	cmp    $0x40,%ebx
  1010bb:	75 ea                	jne    1010a7 <proc_alloc+0xf>
  1010bd:	bb 00 00 00 00       	mov    $0x0,%ebx
  1010c2:	e9 a4 00 00 00       	jmp    10116b <proc_alloc+0xd3>
  1010c7:	8d 14 1b             	lea    (%ebx,%ebx,1),%edx
  1010ca:	01 da                	add    %ebx,%edx
  1010cc:	89 d1                	mov    %edx,%ecx
  1010ce:	c1 e1 06             	shl    $0x6,%ecx
  1010d1:	01 ca                	add    %ecx,%edx
  1010d3:	8d 34 1a             	lea    (%edx,%ebx,1),%esi
  1010d6:	8d 9c 13 00 70 10 00 	lea    0x107000(%ebx,%edx,1),%ebx
  1010dd:	8b 15 44 65 10 00    	mov    0x106544,%edx
  1010e3:	8d 4a 01             	lea    0x1(%edx),%ecx
  1010e6:	89 0d 44 65 10 00    	mov    %ecx,0x106544
  1010ec:	89 96 00 70 10 00    	mov    %edx,0x107000(%esi)
  1010f2:	c7 43 04 01 00 00 00 	movl   $0x1,0x4(%ebx)
  1010f9:	8d 90 c4 0f 00 00    	lea    0xfc4(%eax),%edx
  1010ff:	89 53 0c             	mov    %edx,0xc(%ebx)
  101102:	89 43 08             	mov    %eax,0x8(%ebx)
  101105:	e8 b2 19 00 00       	call   102abc <vm_alloc>
  10110a:	89 43 10             	mov    %eax,0x10(%ebx)
  10110d:	c7 43 1c 00 00 00 00 	movl   $0x0,0x1c(%ebx)
  101114:	c7 43 18 00 00 00 00 	movl   $0x0,0x18(%ebx)
  10111b:	83 ec 08             	sub    $0x8,%esp
  10111e:	6a 00                	push   $0x0
  101120:	8d 86 24 70 10 00    	lea    0x107024(%esi),%eax
  101126:	50                   	push   %eax
  101127:	e8 a3 0d 00 00       	call   101ecf <sem_init>
  10112c:	83 c4 0c             	add    $0xc,%esp
  10112f:	68 80 00 00 00       	push   $0x80
  101134:	6a 00                	push   $0x0
  101136:	8d 86 34 70 10 00    	lea    0x107034(%esi),%eax
  10113c:	50                   	push   %eax
  10113d:	e8 11 34 00 00       	call   104553 <memset>
  101142:	8b 86 00 70 10 00    	mov    0x107000(%esi),%eax
  101148:	89 83 b4 00 00 00    	mov    %eax,0xb4(%ebx)
  10114e:	89 9b bc 00 00 00    	mov    %ebx,0xbc(%ebx)
  101154:	c7 83 b8 00 00 00 01 	movl   $0x1,0xb8(%ebx)
  10115b:	00 00 00 
  10115e:	c7 83 c0 00 00 00 00 	movl   $0x0,0xc0(%ebx)
  101165:	00 00 00 
  101168:	83 c4 10             	add    $0x10,%esp
  10116b:	89 d8                	mov    %ebx,%eax
  10116d:	8d 65 f8             	lea    -0x8(%ebp),%esp
  101170:	5b                   	pop    %ebx
  101171:	5e                   	pop    %esi
  101172:	5d                   	pop    %ebp
  101173:	c3                   	ret    

00101174 <proc_free>:
  101174:	55                   	push   %ebp
  101175:	89 e5                	mov    %esp,%ebp
  101177:	8b 45 08             	mov    0x8(%ebp),%eax
  10117a:	c7 40 04 00 00 00 00 	movl   $0x0,0x4(%eax)
  101181:	5d                   	pop    %ebp
  101182:	c3                   	ret    

00101183 <proc_curr>:
  101183:	a1 40 65 10 00       	mov    0x106540,%eax
  101188:	c3                   	ret    

00101189 <proc_run>:
  101189:	55                   	push   %ebp
  10118a:	89 e5                	mov    %esp,%ebp
  10118c:	53                   	push   %ebx
  10118d:	83 ec 0c             	sub    $0xc,%esp
  101190:	8b 5d 08             	mov    0x8(%ebp),%ebx
  101193:	c7 43 04 02 00 00 00 	movl   $0x2,0x4(%ebx)
  10119a:	89 1d 40 65 10 00    	mov    %ebx,0x106540
  1011a0:	8b 43 10             	mov    0x10(%ebx),%eax
  1011a3:	0f 22 d8             	mov    %eax,%cr3
  1011a6:	8b 43 08             	mov    0x8(%ebx),%eax
  1011a9:	05 00 10 00 00       	add    $0x1000,%eax
  1011ae:	50                   	push   %eax
  1011af:	6a 10                	push   $0x10
  1011b1:	e8 45 17 00 00       	call   1028fb <set_tss>
  1011b6:	83 c4 04             	add    $0x4,%esp
  1011b9:	ff 73 0c             	push   0xc(%ebx)
  1011bc:	e8 3d 2a 00 00       	call   103bfe <irq_iret>

001011c1 <proc_addready>:
  1011c1:	55                   	push   %ebp
  1011c2:	89 e5                	mov    %esp,%ebp
  1011c4:	8b 45 08             	mov    0x8(%ebp),%eax
  1011c7:	c7 40 04 03 00 00 00 	movl   $0x3,0x4(%eax)
  1011ce:	5d                   	pop    %ebp
  1011cf:	c3                   	ret    

001011d0 <proc_yield>:
  1011d0:	a1 40 65 10 00       	mov    0x106540,%eax
  1011d5:	c7 40 04 03 00 00 00 	movl   $0x3,0x4(%eax)
  1011dc:	cd 81                	int    $0x81
  1011de:	c3                   	ret    

001011df <proc_copycurr>:
  1011df:	55                   	push   %ebp
  1011e0:	89 e5                	mov    %esp,%ebp
  1011e2:	57                   	push   %edi
  1011e3:	56                   	push   %esi
  1011e4:	53                   	push   %ebx
  1011e5:	83 ec 18             	sub    $0x18,%esp
  1011e8:	8b 5d 08             	mov    0x8(%ebp),%ebx
  1011eb:	ff 73 10             	push   0x10(%ebx)
  1011ee:	e8 f5 1b 00 00       	call   102de8 <vm_copycurr>
  1011f3:	a1 40 65 10 00       	mov    0x106540,%eax
  1011f8:	8b 50 14             	mov    0x14(%eax),%edx
  1011fb:	89 53 14             	mov    %edx,0x14(%ebx)
  1011fe:	8b 4b 08             	mov    0x8(%ebx),%ecx
  101201:	8d b9 c4 0f 00 00    	lea    0xfc4(%ecx),%edi
  101207:	8b 50 08             	mov    0x8(%eax),%edx
  10120a:	8d b2 c4 0f 00 00    	lea    0xfc4(%edx),%esi
  101210:	b9 0f 00 00 00       	mov    $0xf,%ecx
  101215:	f3 a5                	rep movsl %ds:(%esi),%es:(%edi)
  101217:	8b 53 08             	mov    0x8(%ebx),%edx
  10121a:	c7 82 e0 0f 00 00 00 	movl   $0x0,0xfe0(%edx)
  101221:	00 00 00 
  101224:	89 43 18             	mov    %eax,0x18(%ebx)
  101227:	ff 40 1c             	incl   0x1c(%eax)
  10122a:	83 c4 10             	add    $0x10,%esp
  10122d:	be 00 00 00 00       	mov    $0x0,%esi
  101232:	eb 16                	jmp    10124a <proc_copycurr+0x6b>
  101234:	83 ec 0c             	sub    $0xc,%esp
  101237:	50                   	push   %eax
  101238:	e8 81 0d 00 00       	call   101fbe <usem_dup>
  10123d:	89 44 b3 34          	mov    %eax,0x34(%ebx,%esi,4)
  101241:	83 c4 10             	add    $0x10,%esp
  101244:	46                   	inc    %esi
  101245:	83 fe 20             	cmp    $0x20,%esi
  101248:	74 0f                	je     101259 <proc_copycurr+0x7a>
  10124a:	a1 40 65 10 00       	mov    0x106540,%eax
  10124f:	8b 44 b0 34          	mov    0x34(%eax,%esi,4),%eax
  101253:	85 c0                	test   %eax,%eax
  101255:	75 dd                	jne    101234 <proc_copycurr+0x55>
  101257:	eb eb                	jmp    101244 <proc_copycurr+0x65>
  101259:	8d 65 f4             	lea    -0xc(%ebp),%esp
  10125c:	5b                   	pop    %ebx
  10125d:	5e                   	pop    %esi
  10125e:	5f                   	pop    %edi
  10125f:	5d                   	pop    %ebp
  101260:	c3                   	ret    

00101261 <proc_makezombie>:
  101261:	55                   	push   %ebp
  101262:	89 e5                	mov    %esp,%ebp
  101264:	83 ec 08             	sub    $0x8,%esp
  101267:	8b 55 08             	mov    0x8(%ebp),%edx
  10126a:	c7 42 04 04 00 00 00 	movl   $0x4,0x4(%edx)
  101271:	8b 45 0c             	mov    0xc(%ebp),%eax
  101274:	89 42 20             	mov    %eax,0x20(%edx)
  101277:	b8 18 70 10 00       	mov    $0x107018,%eax
  10127c:	b9 18 a1 10 00       	mov    $0x10a118,%ecx
  101281:	eb 09                	jmp    10128c <proc_makezombie+0x2b>
  101283:	05 c4 00 00 00       	add    $0xc4,%eax
  101288:	39 c8                	cmp    %ecx,%eax
  10128a:	74 0c                	je     101298 <proc_makezombie+0x37>
  10128c:	39 10                	cmp    %edx,(%eax)
  10128e:	75 f3                	jne    101283 <proc_makezombie+0x22>
  101290:	c7 00 00 00 00 00    	movl   $0x0,(%eax)
  101296:	eb eb                	jmp    101283 <proc_makezombie+0x22>
  101298:	8b 42 18             	mov    0x18(%edx),%eax
  10129b:	85 c0                	test   %eax,%eax
  10129d:	74 0f                	je     1012ae <proc_makezombie+0x4d>
  10129f:	83 ec 0c             	sub    $0xc,%esp
  1012a2:	83 c0 24             	add    $0x24,%eax
  1012a5:	50                   	push   %eax
  1012a6:	e8 72 0c 00 00       	call   101f1d <sem_v>
  1012ab:	83 c4 10             	add    $0x10,%esp
  1012ae:	c9                   	leave  
  1012af:	c3                   	ret    

001012b0 <proc_findzombie>:
  1012b0:	55                   	push   %ebp
  1012b1:	89 e5                	mov    %esp,%ebp
  1012b3:	8b 4d 08             	mov    0x8(%ebp),%ecx
  1012b6:	b8 04 70 10 00       	mov    $0x107004,%eax
  1012bb:	ba 00 00 00 00       	mov    $0x0,%edx
  1012c0:	eb 0b                	jmp    1012cd <proc_findzombie+0x1d>
  1012c2:	42                   	inc    %edx
  1012c3:	05 c4 00 00 00       	add    $0xc4,%eax
  1012c8:	83 fa 40             	cmp    $0x40,%edx
  1012cb:	74 1f                	je     1012ec <proc_findzombie+0x3c>
  1012cd:	39 48 14             	cmp    %ecx,0x14(%eax)
  1012d0:	75 f0                	jne    1012c2 <proc_findzombie+0x12>
  1012d2:	83 38 04             	cmpl   $0x4,(%eax)
  1012d5:	75 eb                	jne    1012c2 <proc_findzombie+0x12>
  1012d7:	8d 04 12             	lea    (%edx,%edx,1),%eax
  1012da:	01 d0                	add    %edx,%eax
  1012dc:	89 c1                	mov    %eax,%ecx
  1012de:	c1 e1 06             	shl    $0x6,%ecx
  1012e1:	01 c8                	add    %ecx,%eax
  1012e3:	8d 84 02 00 70 10 00 	lea    0x107000(%edx,%eax,1),%eax
  1012ea:	5d                   	pop    %ebp
  1012eb:	c3                   	ret    
  1012ec:	b8 00 00 00 00       	mov    $0x0,%eax
  1012f1:	eb f7                	jmp    1012ea <proc_findzombie+0x3a>

001012f3 <proc_block>:
  1012f3:	a1 40 65 10 00       	mov    0x106540,%eax
  1012f8:	c7 40 04 05 00 00 00 	movl   $0x5,0x4(%eax)
  1012ff:	cd 81                	int    $0x81
  101301:	c3                   	ret    

00101302 <proc_allocusem>:
  101302:	55                   	push   %ebp
  101303:	89 e5                	mov    %esp,%ebp
  101305:	8b 45 08             	mov    0x8(%ebp),%eax
  101308:	8b 90 bc 00 00 00    	mov    0xbc(%eax),%edx
  10130e:	b8 00 00 00 00       	mov    $0x0,%eax
  101313:	83 7c 82 34 00       	cmpl   $0x0,0x34(%edx,%eax,4)
  101318:	74 0b                	je     101325 <proc_allocusem+0x23>
  10131a:	40                   	inc    %eax
  10131b:	83 f8 20             	cmp    $0x20,%eax
  10131e:	75 f3                	jne    101313 <proc_allocusem+0x11>
  101320:	b8 ff ff ff ff       	mov    $0xffffffff,%eax
  101325:	5d                   	pop    %ebp
  101326:	c3                   	ret    

00101327 <proc_getusem>:
  101327:	55                   	push   %ebp
  101328:	89 e5                	mov    %esp,%ebp
  10132a:	8b 45 0c             	mov    0xc(%ebp),%eax
  10132d:	83 f8 1f             	cmp    $0x1f,%eax
  101330:	77 0f                	ja     101341 <proc_getusem+0x1a>
  101332:	8b 55 08             	mov    0x8(%ebp),%edx
  101335:	8b 92 bc 00 00 00    	mov    0xbc(%edx),%edx
  10133b:	8b 44 82 34          	mov    0x34(%edx,%eax,4),%eax
  10133f:	5d                   	pop    %ebp
  101340:	c3                   	ret    
  101341:	b8 00 00 00 00       	mov    $0x0,%eax
  101346:	eb f7                	jmp    10133f <proc_getusem+0x18>

00101348 <proc_allocfile>:
  101348:	55                   	push   %ebp
  101349:	89 e5                	mov    %esp,%ebp
  10134b:	83 ec 0c             	sub    $0xc,%esp
  10134e:	68 00 50 10 00       	push   $0x105000
  101353:	68 a1 00 00 00       	push   $0xa1
  101358:	68 0d 50 10 00       	push   $0x10500d
  10135d:	e8 56 27 00 00       	call   103ab8 <abort>

00101362 <proc_getfile>:
  101362:	55                   	push   %ebp
  101363:	89 e5                	mov    %esp,%ebp
  101365:	83 ec 0c             	sub    $0xc,%esp
  101368:	68 00 50 10 00       	push   $0x105000
  10136d:	68 a6 00 00 00       	push   $0xa6
  101372:	68 0d 50 10 00       	push   $0x10500d
  101377:	e8 3c 27 00 00       	call   103ab8 <abort>

0010137c <schedule>:
  10137c:	55                   	push   %ebp
  10137d:	89 e5                	mov    %esp,%ebp
  10137f:	56                   	push   %esi
  101380:	53                   	push   %ebx
  101381:	8b 1d 40 65 10 00    	mov    0x106540,%ebx
  101387:	89 d8                	mov    %ebx,%eax
  101389:	2d 00 70 10 00       	sub    $0x107000,%eax
  10138e:	c1 f8 02             	sar    $0x2,%eax
  101391:	8d 14 00             	lea    (%eax,%eax,1),%edx
  101394:	01 c2                	add    %eax,%edx
  101396:	8d 14 90             	lea    (%eax,%edx,4),%edx
  101399:	8d 14 d0             	lea    (%eax,%edx,8),%edx
  10139c:	8d 14 90             	lea    (%eax,%edx,4),%edx
  10139f:	8d 0c 90             	lea    (%eax,%edx,4),%ecx
  1013a2:	89 ca                	mov    %ecx,%edx
  1013a4:	c1 e2 07             	shl    $0x7,%edx
  1013a7:	29 ca                	sub    %ecx,%edx
  1013a9:	8d 14 d0             	lea    (%eax,%edx,8),%edx
  1013ac:	c1 e2 02             	shl    $0x2,%edx
  1013af:	29 c2                	sub    %eax,%edx
  1013b1:	8d 14 90             	lea    (%eax,%edx,4),%edx
  1013b4:	c1 e2 04             	shl    $0x4,%edx
  1013b7:	8d 0c 02             	lea    (%edx,%eax,1),%ecx
  1013ba:	8d 44 10 01          	lea    0x1(%eax,%edx,1),%eax
  1013be:	eb 1b                	jmp    1013db <schedule+0x5f>
  1013c0:	8d 14 00             	lea    (%eax,%eax,1),%edx
  1013c3:	01 c2                	add    %eax,%edx
  1013c5:	89 d6                	mov    %edx,%esi
  1013c7:	c1 e6 06             	shl    $0x6,%esi
  1013ca:	01 f2                	add    %esi,%edx
  1013cc:	83 bc 10 04 70 10 00 	cmpl   $0x3,0x107004(%eax,%edx,1)
  1013d3:	03 
  1013d4:	74 13                	je     1013e9 <schedule+0x6d>
  1013d6:	40                   	inc    %eax
  1013d7:	39 c1                	cmp    %eax,%ecx
  1013d9:	74 2b                	je     101406 <schedule+0x8a>
  1013db:	25 3f 00 00 80       	and    $0x8000003f,%eax
  1013e0:	79 de                	jns    1013c0 <schedule+0x44>
  1013e2:	48                   	dec    %eax
  1013e3:	83 c8 c0             	or     $0xffffffc0,%eax
  1013e6:	40                   	inc    %eax
  1013e7:	eb d7                	jmp    1013c0 <schedule+0x44>
  1013e9:	8b 55 08             	mov    0x8(%ebp),%edx
  1013ec:	89 53 0c             	mov    %edx,0xc(%ebx)
  1013ef:	83 ec 0c             	sub    $0xc,%esp
  1013f2:	8d 14 00             	lea    (%eax,%eax,1),%edx
  1013f5:	01 c2                	add    %eax,%edx
  1013f7:	01 f2                	add    %esi,%edx
  1013f9:	8d 84 10 00 70 10 00 	lea    0x107000(%eax,%edx,1),%eax
  101400:	50                   	push   %eax
  101401:	e8 83 fd ff ff       	call   101189 <proc_run>
  101406:	8d 65 f8             	lea    -0x8(%ebp),%esp
  101409:	5b                   	pop    %ebx
  10140a:	5e                   	pop    %esi
  10140b:	5d                   	pop    %ebp
  10140c:	c3                   	ret    

0010140d <thread_free>:
  10140d:	55                   	push   %ebp
  10140e:	89 e5                	mov    %esp,%ebp
  101410:	8b 45 08             	mov    0x8(%ebp),%eax
  101413:	c7 40 04 00 00 00 00 	movl   $0x0,0x4(%eax)
  10141a:	8b 80 bc 00 00 00    	mov    0xbc(%eax),%eax
  101420:	ff 88 b8 00 00 00    	decl   0xb8(%eax)
  101426:	5d                   	pop    %ebp
  101427:	c3                   	ret    

00101428 <init_cte>:
  101428:	55                   	push   %ebp
  101429:	89 e5                	mov    %esp,%ebp
  10142b:	53                   	push   %ebx
  10142c:	ba dd 3b 10 00       	mov    $0x103bdd,%edx
  101431:	c1 ea 10             	shr    $0x10,%edx
  101434:	b8 00 00 00 00       	mov    $0x0,%eax
  101439:	b9 dd 3b 10 00       	mov    $0x103bdd,%ecx
  10143e:	66 89 0c c5 20 a1 10 	mov    %cx,0x10a120(,%eax,8)
  101445:	00 
  101446:	66 c7 04 c5 22 a1 10 	movw   $0x8,0x10a122(,%eax,8)
  10144d:	00 08 00 
  101450:	c6 04 c5 24 a1 10 00 	movb   $0x0,0x10a124(,%eax,8)
  101457:	00 
  101458:	c6 04 c5 25 a1 10 00 	movb   $0x8e,0x10a125(,%eax,8)
  10145f:	8e 
  101460:	66 89 14 c5 26 a1 10 	mov    %dx,0x10a126(,%eax,8)
  101467:	00 
  101468:	40                   	inc    %eax
  101469:	3d 00 01 00 00       	cmp    $0x100,%eax
  10146e:	75 ce                	jne    10143e <init_cte+0x16>
  101470:	b8 e4 3a 10 00       	mov    $0x103ae4,%eax
  101475:	66 a3 20 a1 10 00    	mov    %ax,0x10a120
  10147b:	66 c7 05 22 a1 10 00 	movw   $0x8,0x10a122
  101482:	08 00 
  101484:	c6 05 24 a1 10 00 00 	movb   $0x0,0x10a124
  10148b:	c6 05 25 a1 10 00 8e 	movb   $0x8e,0x10a125
  101492:	c1 e8 10             	shr    $0x10,%eax
  101495:	66 a3 26 a1 10 00    	mov    %ax,0x10a126
  10149b:	b8 ed 3a 10 00       	mov    $0x103aed,%eax
  1014a0:	66 a3 28 a1 10 00    	mov    %ax,0x10a128
  1014a6:	66 c7 05 2a a1 10 00 	movw   $0x8,0x10a12a
  1014ad:	08 00 
  1014af:	c6 05 2c a1 10 00 00 	movb   $0x0,0x10a12c
  1014b6:	c6 05 2d a1 10 00 8e 	movb   $0x8e,0x10a12d
  1014bd:	c1 e8 10             	shr    $0x10,%eax
  1014c0:	66 a3 2e a1 10 00    	mov    %ax,0x10a12e
  1014c6:	b8 f6 3a 10 00       	mov    $0x103af6,%eax
  1014cb:	66 a3 30 a1 10 00    	mov    %ax,0x10a130
  1014d1:	66 c7 05 32 a1 10 00 	movw   $0x8,0x10a132
  1014d8:	08 00 
  1014da:	c6 05 34 a1 10 00 00 	movb   $0x0,0x10a134
  1014e1:	c6 05 35 a1 10 00 8e 	movb   $0x8e,0x10a135
  1014e8:	c1 e8 10             	shr    $0x10,%eax
  1014eb:	66 a3 36 a1 10 00    	mov    %ax,0x10a136
  1014f1:	b8 ff 3a 10 00       	mov    $0x103aff,%eax
  1014f6:	66 a3 38 a1 10 00    	mov    %ax,0x10a138
  1014fc:	66 c7 05 3a a1 10 00 	movw   $0x8,0x10a13a
  101503:	08 00 
  101505:	c6 05 3c a1 10 00 00 	movb   $0x0,0x10a13c
  10150c:	c6 05 3d a1 10 00 8e 	movb   $0x8e,0x10a13d
  101513:	c1 e8 10             	shr    $0x10,%eax
  101516:	66 a3 3e a1 10 00    	mov    %ax,0x10a13e
  10151c:	b8 08 3b 10 00       	mov    $0x103b08,%eax
  101521:	66 a3 40 a1 10 00    	mov    %ax,0x10a140
  101527:	66 c7 05 42 a1 10 00 	movw   $0x8,0x10a142
  10152e:	08 00 
  101530:	c6 05 44 a1 10 00 00 	movb   $0x0,0x10a144
  101537:	c6 05 45 a1 10 00 8e 	movb   $0x8e,0x10a145
  10153e:	c1 e8 10             	shr    $0x10,%eax
  101541:	66 a3 46 a1 10 00    	mov    %ax,0x10a146
  101547:	b8 11 3b 10 00       	mov    $0x103b11,%eax
  10154c:	66 a3 48 a1 10 00    	mov    %ax,0x10a148
  101552:	66 c7 05 4a a1 10 00 	movw   $0x8,0x10a14a
  101559:	08 00 
  10155b:	c6 05 4c a1 10 00 00 	movb   $0x0,0x10a14c
  101562:	c6 05 4d a1 10 00 8e 	movb   $0x8e,0x10a14d
  101569:	c1 e8 10             	shr    $0x10,%eax
  10156c:	66 a3 4e a1 10 00    	mov    %ax,0x10a14e
  101572:	b8 1a 3b 10 00       	mov    $0x103b1a,%eax
  101577:	66 a3 50 a1 10 00    	mov    %ax,0x10a150
  10157d:	66 c7 05 52 a1 10 00 	movw   $0x8,0x10a152
  101584:	08 00 
  101586:	c6 05 54 a1 10 00 00 	movb   $0x0,0x10a154
  10158d:	c6 05 55 a1 10 00 8e 	movb   $0x8e,0x10a155
  101594:	c1 e8 10             	shr    $0x10,%eax
  101597:	66 a3 56 a1 10 00    	mov    %ax,0x10a156
  10159d:	b8 23 3b 10 00       	mov    $0x103b23,%eax
  1015a2:	66 a3 58 a1 10 00    	mov    %ax,0x10a158
  1015a8:	66 c7 05 5a a1 10 00 	movw   $0x8,0x10a15a
  1015af:	08 00 
  1015b1:	c6 05 5c a1 10 00 00 	movb   $0x0,0x10a15c
  1015b8:	c6 05 5d a1 10 00 8e 	movb   $0x8e,0x10a15d
  1015bf:	c1 e8 10             	shr    $0x10,%eax
  1015c2:	66 a3 5e a1 10 00    	mov    %ax,0x10a15e
  1015c8:	b8 2c 3b 10 00       	mov    $0x103b2c,%eax
  1015cd:	66 a3 60 a1 10 00    	mov    %ax,0x10a160
  1015d3:	66 c7 05 62 a1 10 00 	movw   $0x8,0x10a162
  1015da:	08 00 
  1015dc:	c6 05 64 a1 10 00 00 	movb   $0x0,0x10a164
  1015e3:	c6 05 65 a1 10 00 8e 	movb   $0x8e,0x10a165
  1015ea:	c1 e8 10             	shr    $0x10,%eax
  1015ed:	66 a3 66 a1 10 00    	mov    %ax,0x10a166
  1015f3:	b8 33 3b 10 00       	mov    $0x103b33,%eax
  1015f8:	66 a3 68 a1 10 00    	mov    %ax,0x10a168
  1015fe:	66 c7 05 6a a1 10 00 	movw   $0x8,0x10a16a
  101605:	08 00 
  101607:	c6 05 6c a1 10 00 00 	movb   $0x0,0x10a16c
  10160e:	c6 05 6d a1 10 00 8e 	movb   $0x8e,0x10a16d
  101615:	c1 e8 10             	shr    $0x10,%eax
  101618:	66 a3 6e a1 10 00    	mov    %ax,0x10a16e
  10161e:	b8 3c 3b 10 00       	mov    $0x103b3c,%eax
  101623:	66 a3 70 a1 10 00    	mov    %ax,0x10a170
  101629:	66 c7 05 72 a1 10 00 	movw   $0x8,0x10a172
  101630:	08 00 
  101632:	c6 05 74 a1 10 00 00 	movb   $0x0,0x10a174
  101639:	c6 05 75 a1 10 00 8e 	movb   $0x8e,0x10a175
  101640:	c1 e8 10             	shr    $0x10,%eax
  101643:	66 a3 76 a1 10 00    	mov    %ax,0x10a176
  101649:	b8 43 3b 10 00       	mov    $0x103b43,%eax
  10164e:	66 a3 78 a1 10 00    	mov    %ax,0x10a178
  101654:	66 c7 05 7a a1 10 00 	movw   $0x8,0x10a17a
  10165b:	08 00 
  10165d:	c6 05 7c a1 10 00 00 	movb   $0x0,0x10a17c
  101664:	c6 05 7d a1 10 00 8e 	movb   $0x8e,0x10a17d
  10166b:	c1 e8 10             	shr    $0x10,%eax
  10166e:	66 a3 7e a1 10 00    	mov    %ax,0x10a17e
  101674:	b8 4a 3b 10 00       	mov    $0x103b4a,%eax
  101679:	66 a3 80 a1 10 00    	mov    %ax,0x10a180
  10167f:	66 c7 05 82 a1 10 00 	movw   $0x8,0x10a182
  101686:	08 00 
  101688:	c6 05 84 a1 10 00 00 	movb   $0x0,0x10a184
  10168f:	c6 05 85 a1 10 00 8e 	movb   $0x8e,0x10a185
  101696:	c1 e8 10             	shr    $0x10,%eax
  101699:	66 a3 86 a1 10 00    	mov    %ax,0x10a186
  10169f:	b8 51 3b 10 00       	mov    $0x103b51,%eax
  1016a4:	66 a3 88 a1 10 00    	mov    %ax,0x10a188
  1016aa:	66 c7 05 8a a1 10 00 	movw   $0x8,0x10a18a
  1016b1:	08 00 
  1016b3:	c6 05 8c a1 10 00 00 	movb   $0x0,0x10a18c
  1016ba:	c6 05 8d a1 10 00 8e 	movb   $0x8e,0x10a18d
  1016c1:	c1 e8 10             	shr    $0x10,%eax
  1016c4:	66 a3 8e a1 10 00    	mov    %ax,0x10a18e
  1016ca:	b8 58 3b 10 00       	mov    $0x103b58,%eax
  1016cf:	66 a3 90 a1 10 00    	mov    %ax,0x10a190
  1016d5:	66 c7 05 92 a1 10 00 	movw   $0x8,0x10a192
  1016dc:	08 00 
  1016de:	c6 05 94 a1 10 00 00 	movb   $0x0,0x10a194
  1016e5:	c6 05 95 a1 10 00 8e 	movb   $0x8e,0x10a195
  1016ec:	c1 e8 10             	shr    $0x10,%eax
  1016ef:	66 a3 96 a1 10 00    	mov    %ax,0x10a196
  1016f5:	b8 5f 3b 10 00       	mov    $0x103b5f,%eax
  1016fa:	66 a3 98 a1 10 00    	mov    %ax,0x10a198
  101700:	66 c7 05 9a a1 10 00 	movw   $0x8,0x10a19a
  101707:	08 00 
  101709:	c6 05 9c a1 10 00 00 	movb   $0x0,0x10a19c
  101710:	c6 05 9d a1 10 00 8e 	movb   $0x8e,0x10a19d
  101717:	c1 e8 10             	shr    $0x10,%eax
  10171a:	66 a3 9e a1 10 00    	mov    %ax,0x10a19e
  101720:	b8 65 3b 10 00       	mov    $0x103b65,%eax
  101725:	66 a3 a0 a1 10 00    	mov    %ax,0x10a1a0
  10172b:	66 c7 05 a2 a1 10 00 	movw   $0x8,0x10a1a2
  101732:	08 00 
  101734:	c6 05 a4 a1 10 00 00 	movb   $0x0,0x10a1a4
  10173b:	c6 05 a5 a1 10 00 8e 	movb   $0x8e,0x10a1a5
  101742:	c1 e8 10             	shr    $0x10,%eax
  101745:	66 a3 a6 a1 10 00    	mov    %ax,0x10a1a6
  10174b:	b8 6b 3b 10 00       	mov    $0x103b6b,%eax
  101750:	66 a3 20 a2 10 00    	mov    %ax,0x10a220
  101756:	66 c7 05 22 a2 10 00 	movw   $0x8,0x10a222
  10175d:	08 00 
  10175f:	c6 05 24 a2 10 00 00 	movb   $0x0,0x10a224
  101766:	c6 05 25 a2 10 00 8e 	movb   $0x8e,0x10a225
  10176d:	c1 e8 10             	shr    $0x10,%eax
  101770:	66 a3 26 a2 10 00    	mov    %ax,0x10a226
  101776:	b8 71 3b 10 00       	mov    $0x103b71,%eax
  10177b:	66 a3 28 a2 10 00    	mov    %ax,0x10a228
  101781:	66 c7 05 2a a2 10 00 	movw   $0x8,0x10a22a
  101788:	08 00 
  10178a:	c6 05 2c a2 10 00 00 	movb   $0x0,0x10a22c
  101791:	c6 05 2d a2 10 00 8e 	movb   $0x8e,0x10a22d
  101798:	c1 e8 10             	shr    $0x10,%eax
  10179b:	66 a3 2e a2 10 00    	mov    %ax,0x10a22e
  1017a1:	b8 77 3b 10 00       	mov    $0x103b77,%eax
  1017a6:	66 a3 30 a2 10 00    	mov    %ax,0x10a230
  1017ac:	66 c7 05 32 a2 10 00 	movw   $0x8,0x10a232
  1017b3:	08 00 
  1017b5:	c6 05 34 a2 10 00 00 	movb   $0x0,0x10a234
  1017bc:	c6 05 35 a2 10 00 8e 	movb   $0x8e,0x10a235
  1017c3:	c1 e8 10             	shr    $0x10,%eax
  1017c6:	66 a3 36 a2 10 00    	mov    %ax,0x10a236
  1017cc:	b8 7d 3b 10 00       	mov    $0x103b7d,%eax
  1017d1:	66 a3 38 a2 10 00    	mov    %ax,0x10a238
  1017d7:	66 c7 05 3a a2 10 00 	movw   $0x8,0x10a23a
  1017de:	08 00 
  1017e0:	c6 05 3c a2 10 00 00 	movb   $0x0,0x10a23c
  1017e7:	c6 05 3d a2 10 00 8e 	movb   $0x8e,0x10a23d
  1017ee:	c1 e8 10             	shr    $0x10,%eax
  1017f1:	66 a3 3e a2 10 00    	mov    %ax,0x10a23e
  1017f7:	b8 83 3b 10 00       	mov    $0x103b83,%eax
  1017fc:	66 a3 40 a2 10 00    	mov    %ax,0x10a240
  101802:	66 c7 05 42 a2 10 00 	movw   $0x8,0x10a242
  101809:	08 00 
  10180b:	c6 05 44 a2 10 00 00 	movb   $0x0,0x10a244
  101812:	c6 05 45 a2 10 00 8e 	movb   $0x8e,0x10a245
  101819:	c1 e8 10             	shr    $0x10,%eax
  10181c:	66 a3 46 a2 10 00    	mov    %ax,0x10a246
  101822:	b8 89 3b 10 00       	mov    $0x103b89,%eax
  101827:	66 a3 48 a2 10 00    	mov    %ax,0x10a248
  10182d:	66 c7 05 4a a2 10 00 	movw   $0x8,0x10a24a
  101834:	08 00 
  101836:	c6 05 4c a2 10 00 00 	movb   $0x0,0x10a24c
  10183d:	c6 05 4d a2 10 00 8e 	movb   $0x8e,0x10a24d
  101844:	c1 e8 10             	shr    $0x10,%eax
  101847:	66 a3 4e a2 10 00    	mov    %ax,0x10a24e
  10184d:	b8 8f 3b 10 00       	mov    $0x103b8f,%eax
  101852:	66 a3 50 a2 10 00    	mov    %ax,0x10a250
  101858:	66 c7 05 52 a2 10 00 	movw   $0x8,0x10a252
  10185f:	08 00 
  101861:	c6 05 54 a2 10 00 00 	movb   $0x0,0x10a254
  101868:	c6 05 55 a2 10 00 8e 	movb   $0x8e,0x10a255
  10186f:	c1 e8 10             	shr    $0x10,%eax
  101872:	66 a3 56 a2 10 00    	mov    %ax,0x10a256
  101878:	b8 95 3b 10 00       	mov    $0x103b95,%eax
  10187d:	66 a3 58 a2 10 00    	mov    %ax,0x10a258
  101883:	66 c7 05 5a a2 10 00 	movw   $0x8,0x10a25a
  10188a:	08 00 
  10188c:	c6 05 5c a2 10 00 00 	movb   $0x0,0x10a25c
  101893:	c6 05 5d a2 10 00 8e 	movb   $0x8e,0x10a25d
  10189a:	c1 e8 10             	shr    $0x10,%eax
  10189d:	66 a3 5e a2 10 00    	mov    %ax,0x10a25e
  1018a3:	b8 9b 3b 10 00       	mov    $0x103b9b,%eax
  1018a8:	66 a3 60 a2 10 00    	mov    %ax,0x10a260
  1018ae:	66 c7 05 62 a2 10 00 	movw   $0x8,0x10a262
  1018b5:	08 00 
  1018b7:	c6 05 64 a2 10 00 00 	movb   $0x0,0x10a264
  1018be:	c6 05 65 a2 10 00 8e 	movb   $0x8e,0x10a265
  1018c5:	c1 e8 10             	shr    $0x10,%eax
  1018c8:	66 a3 66 a2 10 00    	mov    %ax,0x10a266
  1018ce:	b8 a1 3b 10 00       	mov    $0x103ba1,%eax
  1018d3:	66 a3 68 a2 10 00    	mov    %ax,0x10a268
  1018d9:	66 c7 05 6a a2 10 00 	movw   $0x8,0x10a26a
  1018e0:	08 00 
  1018e2:	c6 05 6c a2 10 00 00 	movb   $0x0,0x10a26c
  1018e9:	c6 05 6d a2 10 00 8e 	movb   $0x8e,0x10a26d
  1018f0:	c1 e8 10             	shr    $0x10,%eax
  1018f3:	66 a3 6e a2 10 00    	mov    %ax,0x10a26e
  1018f9:	b8 a7 3b 10 00       	mov    $0x103ba7,%eax
  1018fe:	66 a3 70 a2 10 00    	mov    %ax,0x10a270
  101904:	66 c7 05 72 a2 10 00 	movw   $0x8,0x10a272
  10190b:	08 00 
  10190d:	c6 05 74 a2 10 00 00 	movb   $0x0,0x10a274
  101914:	c6 05 75 a2 10 00 8e 	movb   $0x8e,0x10a275
  10191b:	c1 e8 10             	shr    $0x10,%eax
  10191e:	66 a3 76 a2 10 00    	mov    %ax,0x10a276
  101924:	b8 ad 3b 10 00       	mov    $0x103bad,%eax
  101929:	66 a3 78 a2 10 00    	mov    %ax,0x10a278
  10192f:	66 c7 05 7a a2 10 00 	movw   $0x8,0x10a27a
  101936:	08 00 
  101938:	c6 05 7c a2 10 00 00 	movb   $0x0,0x10a27c
  10193f:	c6 05 7d a2 10 00 8e 	movb   $0x8e,0x10a27d
  101946:	c1 e8 10             	shr    $0x10,%eax
  101949:	66 a3 7e a2 10 00    	mov    %ax,0x10a27e
  10194f:	b8 b3 3b 10 00       	mov    $0x103bb3,%eax
  101954:	66 a3 80 a2 10 00    	mov    %ax,0x10a280
  10195a:	66 c7 05 82 a2 10 00 	movw   $0x8,0x10a282
  101961:	08 00 
  101963:	c6 05 84 a2 10 00 00 	movb   $0x0,0x10a284
  10196a:	c6 05 85 a2 10 00 8e 	movb   $0x8e,0x10a285
  101971:	c1 e8 10             	shr    $0x10,%eax
  101974:	66 a3 86 a2 10 00    	mov    %ax,0x10a286
  10197a:	b8 b9 3b 10 00       	mov    $0x103bb9,%eax
  10197f:	66 a3 88 a2 10 00    	mov    %ax,0x10a288
  101985:	66 c7 05 8a a2 10 00 	movw   $0x8,0x10a28a
  10198c:	08 00 
  10198e:	c6 05 8c a2 10 00 00 	movb   $0x0,0x10a28c
  101995:	c6 05 8d a2 10 00 8e 	movb   $0x8e,0x10a28d
  10199c:	c1 e8 10             	shr    $0x10,%eax
  10199f:	66 a3 8e a2 10 00    	mov    %ax,0x10a28e
  1019a5:	b8 bf 3b 10 00       	mov    $0x103bbf,%eax
  1019aa:	66 a3 90 a2 10 00    	mov    %ax,0x10a290
  1019b0:	66 c7 05 92 a2 10 00 	movw   $0x8,0x10a292
  1019b7:	08 00 
  1019b9:	c6 05 94 a2 10 00 00 	movb   $0x0,0x10a294
  1019c0:	c6 05 95 a2 10 00 8e 	movb   $0x8e,0x10a295
  1019c7:	c1 e8 10             	shr    $0x10,%eax
  1019ca:	66 a3 96 a2 10 00    	mov    %ax,0x10a296
  1019d0:	b8 c5 3b 10 00       	mov    $0x103bc5,%eax
  1019d5:	66 a3 98 a2 10 00    	mov    %ax,0x10a298
  1019db:	66 c7 05 9a a2 10 00 	movw   $0x8,0x10a29a
  1019e2:	08 00 
  1019e4:	c6 05 9c a2 10 00 00 	movb   $0x0,0x10a29c
  1019eb:	c6 05 9d a2 10 00 8e 	movb   $0x8e,0x10a29d
  1019f2:	c1 e8 10             	shr    $0x10,%eax
  1019f5:	66 a3 9e a2 10 00    	mov    %ax,0x10a29e
  1019fb:	b8 cb 3b 10 00       	mov    $0x103bcb,%eax
  101a00:	66 a3 20 a5 10 00    	mov    %ax,0x10a520
  101a06:	66 c7 05 22 a5 10 00 	movw   $0x8,0x10a522
  101a0d:	08 00 
  101a0f:	c6 05 24 a5 10 00 00 	movb   $0x0,0x10a524
  101a16:	c6 05 25 a5 10 00 ee 	movb   $0xee,0x10a525
  101a1d:	c1 e8 10             	shr    $0x10,%eax
  101a20:	66 a3 26 a5 10 00    	mov    %ax,0x10a526
  101a26:	b8 d4 3b 10 00       	mov    $0x103bd4,%eax
  101a2b:	66 a3 28 a5 10 00    	mov    %ax,0x10a528
  101a31:	66 c7 05 2a a5 10 00 	movw   $0x8,0x10a52a
  101a38:	08 00 
  101a3a:	c6 05 2c a5 10 00 00 	movb   $0x0,0x10a52c
  101a41:	c6 05 2d a5 10 00 8e 	movb   $0x8e,0x10a52d
  101a48:	c1 e8 10             	shr    $0x10,%eax
  101a4b:	66 a3 2e a5 10 00    	mov    %ax,0x10a52e
  101a51:	66 c7 05 00 a1 10 00 	movw   $0x800,0x10a100
  101a58:	00 08 
  101a5a:	c7 05 02 a1 10 00 20 	movl   $0x10a120,0x10a102
  101a61:	a1 10 00 
  101a64:	b8 00 a1 10 00       	mov    $0x10a100,%eax
  101a69:	0f 01 18             	lidtl  (%eax)
  101a6c:	b0 11                	mov    $0x11,%al
  101a6e:	ba 20 00 00 00       	mov    $0x20,%edx
  101a73:	ee                   	out    %al,(%dx)
  101a74:	ba a0 00 00 00       	mov    $0xa0,%edx
  101a79:	ee                   	out    %al,(%dx)
  101a7a:	bb 21 00 00 00       	mov    $0x21,%ebx
  101a7f:	b0 20                	mov    $0x20,%al
  101a81:	89 da                	mov    %ebx,%edx
  101a83:	ee                   	out    %al,(%dx)
  101a84:	b9 a1 00 00 00       	mov    $0xa1,%ecx
  101a89:	b0 28                	mov    $0x28,%al
  101a8b:	89 ca                	mov    %ecx,%edx
  101a8d:	ee                   	out    %al,(%dx)
  101a8e:	b0 04                	mov    $0x4,%al
  101a90:	89 da                	mov    %ebx,%edx
  101a92:	ee                   	out    %al,(%dx)
  101a93:	b0 02                	mov    $0x2,%al
  101a95:	89 ca                	mov    %ecx,%edx
  101a97:	ee                   	out    %al,(%dx)
  101a98:	b0 03                	mov    $0x3,%al
  101a9a:	89 da                	mov    %ebx,%edx
  101a9c:	ee                   	out    %al,(%dx)
  101a9d:	89 ca                	mov    %ecx,%edx
  101a9f:	ee                   	out    %al,(%dx)
  101aa0:	8b 5d fc             	mov    -0x4(%ebp),%ebx
  101aa3:	c9                   	leave  
  101aa4:	c3                   	ret    

00101aa5 <irq_handle>:
  101aa5:	55                   	push   %ebp
  101aa6:	89 e5                	mov    %esp,%ebp
  101aa8:	53                   	push   %ebx
  101aa9:	83 ec 14             	sub    $0x14,%esp
  101aac:	8b 5d 08             	mov    0x8(%ebp),%ebx
  101aaf:	83 7b 20 10          	cmpl   $0x10,0x20(%ebx)
  101ab3:	76 26                	jbe    101adb <irq_handle+0x36>
  101ab5:	8b 43 20             	mov    0x20(%ebx),%eax
  101ab8:	83 f8 24             	cmp    $0x24,%eax
  101abb:	74 52                	je     101b0f <irq_handle+0x6a>
  101abd:	76 2a                	jbe    101ae9 <irq_handle+0x44>
  101abf:	3d 80 00 00 00       	cmp    $0x80,%eax
  101ac4:	74 34                	je     101afa <irq_handle+0x55>
  101ac6:	3d 81 00 00 00       	cmp    $0x81,%eax
  101acb:	75 74                	jne    101b41 <irq_handle+0x9c>
  101acd:	83 ec 0c             	sub    $0xc,%esp
  101ad0:	53                   	push   %ebx
  101ad1:	e8 a6 f8 ff ff       	call   10137c <schedule>
  101ad6:	83 c4 10             	add    $0x10,%esp
  101ad9:	eb 2b                	jmp    101b06 <irq_handle+0x61>
  101adb:	83 ec 0c             	sub    $0xc,%esp
  101ade:	53                   	push   %ebx
  101adf:	e8 7c 00 00 00       	call   101b60 <exception_debug_handler>
  101ae4:	83 c4 10             	add    $0x10,%esp
  101ae7:	eb cc                	jmp    101ab5 <irq_handle+0x10>
  101ae9:	83 f8 0e             	cmp    $0xe,%eax
  101aec:	74 28                	je     101b16 <irq_handle+0x71>
  101aee:	83 f8 20             	cmp    $0x20,%eax
  101af1:	75 4e                	jne    101b41 <irq_handle+0x9c>
  101af3:	e8 a4 14 00 00       	call   102f9c <timer_handle>
  101af8:	eb 0c                	jmp    101b06 <irq_handle+0x61>
  101afa:	83 ec 0c             	sub    $0xc,%esp
  101afd:	53                   	push   %ebx
  101afe:	e8 cf 1d 00 00       	call   1038d2 <do_syscall>
  101b03:	83 c4 10             	add    $0x10,%esp
  101b06:	83 ec 0c             	sub    $0xc,%esp
  101b09:	53                   	push   %ebx
  101b0a:	e8 ef 20 00 00       	call   103bfe <irq_iret>
  101b0f:	e8 8b 01 00 00       	call   101c9f <serial_handle>
  101b14:	eb f0                	jmp    101b06 <irq_handle+0x61>
  101b16:	83 ec 08             	sub    $0x8,%esp
  101b19:	ff 73 28             	push   0x28(%ebx)
  101b1c:	68 1f 50 10 00       	push   $0x10501f
  101b21:	e8 79 1f 00 00       	call   103a9f <printf>
  101b26:	8b 53 24             	mov    0x24(%ebx),%edx
  101b29:	0f 20 d0             	mov    %cr2,%eax
  101b2c:	89 45 f4             	mov    %eax,-0xc(%ebp)
  101b2f:	8b 45 f4             	mov    -0xc(%ebp),%eax
  101b32:	83 c4 08             	add    $0x8,%esp
  101b35:	52                   	push   %edx
  101b36:	50                   	push   %eax
  101b37:	e8 69 13 00 00       	call   102ea5 <vm_pgfault>
  101b3c:	83 c4 10             	add    $0x10,%esp
  101b3f:	eb c5                	jmp    101b06 <irq_handle+0x61>
  101b41:	83 e8 20             	sub    $0x20,%eax
  101b44:	83 f8 0f             	cmp    $0xf,%eax
  101b47:	76 bd                	jbe    101b06 <irq_handle+0x61>
  101b49:	83 ec 04             	sub    $0x4,%esp
  101b4c:	68 38 50 10 00       	push   $0x105038
  101b51:	68 86 00 00 00       	push   $0x86
  101b56:	68 27 50 10 00       	push   $0x105027
  101b5b:	e8 58 1f 00 00       	call   103ab8 <abort>

00101b60 <exception_debug_handler>:
  101b60:	c3                   	ret    

00101b61 <init_user_and_go>:
  101b61:	55                   	push   %ebp
  101b62:	89 e5                	mov    %esp,%ebp
  101b64:	53                   	push   %ebx
  101b65:	83 ec 14             	sub    $0x14,%esp
  101b68:	e8 2b f5 ff ff       	call   101098 <proc_alloc>
  101b6d:	85 c0                	test   %eax,%eax
  101b6f:	74 3f                	je     101bb0 <init_user_and_go+0x4f>
  101b71:	89 c3                	mov    %eax,%ebx
  101b73:	c7 45 f0 7c 50 10 00 	movl   $0x10507c,-0x10(%ebp)
  101b7a:	c7 45 f4 00 00 00 00 	movl   $0x0,-0xc(%ebp)
  101b81:	8d 45 f0             	lea    -0x10(%ebp),%eax
  101b84:	50                   	push   %eax
  101b85:	68 80 50 10 00       	push   $0x105080
  101b8a:	ff 73 0c             	push   0xc(%ebx)
  101b8d:	ff 73 10             	push   0x10(%ebx)
  101b90:	e8 00 09 00 00       	call   102495 <load_user>
  101b95:	83 c4 10             	add    $0x10,%esp
  101b98:	85 c0                	test   %eax,%eax
  101b9a:	74 28                	je     101bc4 <init_user_and_go+0x63>
  101b9c:	83 ec 04             	sub    $0x4,%esp
  101b9f:	68 94 50 10 00       	push   $0x105094
  101ba4:	6a 2b                	push   $0x2b
  101ba6:	68 6a 50 10 00       	push   $0x10506a
  101bab:	e8 08 1f 00 00       	call   103ab8 <abort>
  101bb0:	83 ec 04             	sub    $0x4,%esp
  101bb3:	68 73 52 10 00       	push   $0x105273
  101bb8:	6a 25                	push   $0x25
  101bba:	68 6a 50 10 00       	push   $0x10506a
  101bbf:	e8 f4 1e 00 00       	call   103ab8 <abort>
  101bc4:	83 ec 0c             	sub    $0xc,%esp
  101bc7:	53                   	push   %ebx
  101bc8:	e8 f4 f5 ff ff       	call   1011c1 <proc_addready>
  101bcd:	fb                   	sti    
  101bce:	83 c4 10             	add    $0x10,%esp
  101bd1:	eb fe                	jmp    101bd1 <init_user_and_go+0x70>

00101bd3 <main>:
  101bd3:	8d 4c 24 04          	lea    0x4(%esp),%ecx
  101bd7:	83 e4 f0             	and    $0xfffffff0,%esp
  101bda:	ff 71 fc             	push   -0x4(%ecx)
  101bdd:	55                   	push   %ebp
  101bde:	89 e5                	mov    %esp,%ebp
  101be0:	51                   	push   %ecx
  101be1:	83 ec 04             	sub    $0x4,%esp
  101be4:	e8 01 0c 00 00       	call   1027ea <init_gdt>
  101be9:	e8 45 00 00 00       	call   101c33 <init_serial>
  101bee:	e8 e1 03 00 00       	call   101fd4 <init_fs>
  101bf3:	e8 18 0d 00 00       	call   102910 <init_page>
  101bf8:	e8 2b f8 ff ff       	call   101428 <init_cte>
  101bfd:	e8 86 13 00 00       	call   102f88 <init_timer>
  101c02:	e8 f9 f3 ff ff       	call   101000 <init_proc>
  101c07:	83 ec 0c             	sub    $0xc,%esp
  101c0a:	68 83 50 10 00       	push   $0x105083
  101c0f:	e8 8b 1e 00 00       	call   103a9f <printf>
  101c14:	e8 48 ff ff ff       	call   101b61 <init_user_and_go>

00101c19 <putchar>:
  101c19:	55                   	push   %ebp
  101c1a:	89 e5                	mov    %esp,%ebp
  101c1c:	8a 4d 08             	mov    0x8(%ebp),%cl
  101c1f:	ba fd 03 00 00       	mov    $0x3fd,%edx
  101c24:	ec                   	in     (%dx),%al
  101c25:	a8 20                	test   $0x20,%al
  101c27:	74 fb                	je     101c24 <putchar+0xb>
  101c29:	ba f8 03 00 00       	mov    $0x3f8,%edx
  101c2e:	88 c8                	mov    %cl,%al
  101c30:	ee                   	out    %al,(%dx)
  101c31:	5d                   	pop    %ebp
  101c32:	c3                   	ret    

00101c33 <init_serial>:
  101c33:	55                   	push   %ebp
  101c34:	89 e5                	mov    %esp,%ebp
  101c36:	57                   	push   %edi
  101c37:	56                   	push   %esi
  101c38:	53                   	push   %ebx
  101c39:	83 ec 18             	sub    $0x18,%esp
  101c3c:	bf 00 00 00 00       	mov    $0x0,%edi
  101c41:	b9 f9 03 00 00       	mov    $0x3f9,%ecx
  101c46:	89 f8                	mov    %edi,%eax
  101c48:	89 ca                	mov    %ecx,%edx
  101c4a:	ee                   	out    %al,(%dx)
  101c4b:	be fb 03 00 00       	mov    $0x3fb,%esi
  101c50:	b0 80                	mov    $0x80,%al
  101c52:	89 f2                	mov    %esi,%edx
  101c54:	ee                   	out    %al,(%dx)
  101c55:	b3 01                	mov    $0x1,%bl
  101c57:	ba f8 03 00 00       	mov    $0x3f8,%edx
  101c5c:	88 d8                	mov    %bl,%al
  101c5e:	ee                   	out    %al,(%dx)
  101c5f:	89 f8                	mov    %edi,%eax
  101c61:	89 ca                	mov    %ecx,%edx
  101c63:	ee                   	out    %al,(%dx)
  101c64:	b0 03                	mov    $0x3,%al
  101c66:	89 f2                	mov    %esi,%edx
  101c68:	ee                   	out    %al,(%dx)
  101c69:	b0 c7                	mov    $0xc7,%al
  101c6b:	ba fa 03 00 00       	mov    $0x3fa,%edx
  101c70:	ee                   	out    %al,(%dx)
  101c71:	b0 0b                	mov    $0xb,%al
  101c73:	ba fc 03 00 00       	mov    $0x3fc,%edx
  101c78:	ee                   	out    %al,(%dx)
  101c79:	88 d8                	mov    %bl,%al
  101c7b:	89 ca                	mov    %ecx,%edx
  101c7d:	ee                   	out    %al,(%dx)
  101c7e:	6a 0a                	push   $0xa
  101c80:	e8 94 ff ff ff       	call   101c19 <putchar>
  101c85:	83 c4 08             	add    $0x8,%esp
  101c88:	6a 00                	push   $0x0
  101c8a:	68 40 aa 10 00       	push   $0x10aa40
  101c8f:	e8 3b 02 00 00       	call   101ecf <sem_init>
  101c94:	83 c4 10             	add    $0x10,%esp
  101c97:	8d 65 f4             	lea    -0xc(%ebp),%esp
  101c9a:	5b                   	pop    %ebx
  101c9b:	5e                   	pop    %esi
  101c9c:	5f                   	pop    %edi
  101c9d:	5d                   	pop    %ebp
  101c9e:	c3                   	ret    

00101c9f <serial_handle>:
  101c9f:	55                   	push   %ebp
  101ca0:	89 e5                	mov    %esp,%ebp
  101ca2:	56                   	push   %esi
  101ca3:	53                   	push   %ebx
  101ca4:	83 ec 10             	sub    $0x10,%esp
  101ca7:	be f8 03 00 00       	mov    $0x3f8,%esi
  101cac:	eb 62                	jmp    101d10 <serial_handle+0x71>
  101cae:	8a 45 f7             	mov    -0x9(%ebp),%al
  101cb1:	3c 1b                	cmp    $0x1b,%al
  101cb3:	74 42                	je     101cf7 <serial_handle+0x58>
  101cb5:	3c 7f                	cmp    $0x7f,%al
  101cb7:	74 7f                	je     101d38 <serial_handle+0x99>
  101cb9:	8a 45 f7             	mov    -0x9(%ebp),%al
  101cbc:	83 e8 20             	sub    $0x20,%eax
  101cbf:	3c 5e                	cmp    $0x5e,%al
  101cc1:	77 4d                	ja     101d10 <serial_handle+0x71>
  101cc3:	83 ec 0c             	sub    $0xc,%esp
  101cc6:	0f be 45 f7          	movsbl -0x9(%ebp),%eax
  101cca:	50                   	push   %eax
  101ccb:	e8 49 ff ff ff       	call   101c19 <putchar>
  101cd0:	a1 24 a9 10 00       	mov    0x10a924,%eax
  101cd5:	8d 50 01             	lea    0x1(%eax),%edx
  101cd8:	89 15 24 a9 10 00    	mov    %edx,0x10a924
  101cde:	83 c4 10             	add    $0x10,%esp
  101ce1:	25 ff 00 00 80       	and    $0x800000ff,%eax
  101ce6:	0f 88 fb 00 00 00    	js     101de7 <serial_handle+0x148>
  101cec:	8a 5d f7             	mov    -0x9(%ebp),%bl
  101cef:	88 98 40 a9 10 00    	mov    %bl,0x10a940(%eax)
  101cf5:	eb 19                	jmp    101d10 <serial_handle+0x71>
  101cf7:	ba fd 03 00 00       	mov    $0x3fd,%edx
  101cfc:	ec                   	in     (%dx),%al
  101cfd:	a8 01                	test   $0x1,%al
  101cff:	74 0f                	je     101d10 <serial_handle+0x71>
  101d01:	b9 fd 03 00 00       	mov    $0x3fd,%ecx
  101d06:	89 f2                	mov    %esi,%edx
  101d08:	ec                   	in     (%dx),%al
  101d09:	89 ca                	mov    %ecx,%edx
  101d0b:	ec                   	in     (%dx),%al
  101d0c:	a8 01                	test   $0x1,%al
  101d0e:	75 f6                	jne    101d06 <serial_handle+0x67>
  101d10:	b9 fd 03 00 00       	mov    $0x3fd,%ecx
  101d15:	89 ca                	mov    %ecx,%edx
  101d17:	ec                   	in     (%dx),%al
  101d18:	a8 01                	test   $0x1,%al
  101d1a:	0f 84 11 01 00 00    	je     101e31 <serial_handle+0x192>
  101d20:	89 f2                	mov    %esi,%edx
  101d22:	ec                   	in     (%dx),%al
  101d23:	88 45 f7             	mov    %al,-0x9(%ebp)
  101d26:	3c 0d                	cmp    $0xd,%al
  101d28:	74 61                	je     101d8b <serial_handle+0xec>
  101d2a:	77 82                	ja     101cae <serial_handle+0xf>
  101d2c:	84 c0                	test   %al,%al
  101d2e:	74 e5                	je     101d15 <serial_handle+0x76>
  101d30:	3c 08                	cmp    $0x8,%al
  101d32:	0f 85 c4 00 00 00    	jne    101dfc <serial_handle+0x15d>
  101d38:	a1 24 a9 10 00       	mov    0x10a924,%eax
  101d3d:	3b 05 20 a9 10 00    	cmp    0x10a920,%eax
  101d43:	7e cb                	jle    101d10 <serial_handle+0x71>
  101d45:	48                   	dec    %eax
  101d46:	a3 24 a9 10 00       	mov    %eax,0x10a924
  101d4b:	25 ff 00 00 80       	and    $0x800000ff,%eax
  101d50:	78 30                	js     101d82 <serial_handle+0xe3>
  101d52:	80 b8 40 a9 10 00 00 	cmpb   $0x0,0x10a940(%eax)
  101d59:	74 b5                	je     101d10 <serial_handle+0x71>
  101d5b:	83 ec 0c             	sub    $0xc,%esp
  101d5e:	6a 08                	push   $0x8
  101d60:	e8 b4 fe ff ff       	call   101c19 <putchar>
  101d65:	c7 04 24 20 00 00 00 	movl   $0x20,(%esp)
  101d6c:	e8 a8 fe ff ff       	call   101c19 <putchar>
  101d71:	c7 04 24 08 00 00 00 	movl   $0x8,(%esp)
  101d78:	e8 9c fe ff ff       	call   101c19 <putchar>
  101d7d:	83 c4 10             	add    $0x10,%esp
  101d80:	eb 8e                	jmp    101d10 <serial_handle+0x71>
  101d82:	48                   	dec    %eax
  101d83:	0d 00 ff ff ff       	or     $0xffffff00,%eax
  101d88:	40                   	inc    %eax
  101d89:	eb c7                	jmp    101d52 <serial_handle+0xb3>
  101d8b:	83 ec 0c             	sub    $0xc,%esp
  101d8e:	6a 0a                	push   $0xa
  101d90:	e8 84 fe ff ff       	call   101c19 <putchar>
  101d95:	a1 24 a9 10 00       	mov    0x10a924,%eax
  101d9a:	8d 58 01             	lea    0x1(%eax),%ebx
  101d9d:	89 1d 24 a9 10 00    	mov    %ebx,0x10a924
  101da3:	83 c4 10             	add    $0x10,%esp
  101da6:	25 ff 00 00 80       	and    $0x800000ff,%eax
  101dab:	78 31                	js     101dde <serial_handle+0x13f>
  101dad:	c6 80 40 a9 10 00 0a 	movb   $0xa,0x10a940(%eax)
  101db4:	2b 1d 20 a9 10 00    	sub    0x10a920,%ebx
  101dba:	74 13                	je     101dcf <serial_handle+0x130>
  101dbc:	83 ec 0c             	sub    $0xc,%esp
  101dbf:	68 40 aa 10 00       	push   $0x10aa40
  101dc4:	e8 54 01 00 00       	call   101f1d <sem_v>
  101dc9:	83 c4 10             	add    $0x10,%esp
  101dcc:	4b                   	dec    %ebx
  101dcd:	75 ed                	jne    101dbc <serial_handle+0x11d>
  101dcf:	a1 24 a9 10 00       	mov    0x10a924,%eax
  101dd4:	a3 20 a9 10 00       	mov    %eax,0x10a920
  101dd9:	e9 32 ff ff ff       	jmp    101d10 <serial_handle+0x71>
  101dde:	48                   	dec    %eax
  101ddf:	0d 00 ff ff ff       	or     $0xffffff00,%eax
  101de4:	40                   	inc    %eax
  101de5:	eb c6                	jmp    101dad <serial_handle+0x10e>
  101de7:	48                   	dec    %eax
  101de8:	0d 00 ff ff ff       	or     $0xffffff00,%eax
  101ded:	40                   	inc    %eax
  101dee:	e9 f9 fe ff ff       	jmp    101cec <serial_handle+0x4d>
  101df3:	48                   	dec    %eax
  101df4:	0d 00 ff ff ff       	or     $0xffffff00,%eax
  101df9:	40                   	inc    %eax
  101dfa:	eb 2c                	jmp    101e28 <serial_handle+0x189>
  101dfc:	80 7d f7 0a          	cmpb   $0xa,-0x9(%ebp)
  101e00:	0f 85 0a ff ff ff    	jne    101d10 <serial_handle+0x71>
  101e06:	83 ec 0c             	sub    $0xc,%esp
  101e09:	6a 0a                	push   $0xa
  101e0b:	e8 09 fe ff ff       	call   101c19 <putchar>
  101e10:	a1 24 a9 10 00       	mov    0x10a924,%eax
  101e15:	8d 58 01             	lea    0x1(%eax),%ebx
  101e18:	89 1d 24 a9 10 00    	mov    %ebx,0x10a924
  101e1e:	83 c4 10             	add    $0x10,%esp
  101e21:	25 ff 00 00 80       	and    $0x800000ff,%eax
  101e26:	78 cb                	js     101df3 <serial_handle+0x154>
  101e28:	c6 80 40 a9 10 00 0a 	movb   $0xa,0x10a940(%eax)
  101e2f:	eb 83                	jmp    101db4 <serial_handle+0x115>
  101e31:	8d 65 f8             	lea    -0x8(%ebp),%esp
  101e34:	5b                   	pop    %ebx
  101e35:	5e                   	pop    %esi
  101e36:	5d                   	pop    %ebp
  101e37:	c3                   	ret    

00101e38 <getchar>:
  101e38:	55                   	push   %ebp
  101e39:	89 e5                	mov    %esp,%ebp
  101e3b:	83 ec 14             	sub    $0x14,%esp
  101e3e:	68 40 aa 10 00       	push   $0x10aa40
  101e43:	e8 a3 00 00 00       	call   101eeb <sem_p>
  101e48:	a1 28 a9 10 00       	mov    0x10a928,%eax
  101e4d:	83 c4 10             	add    $0x10,%esp
  101e50:	39 05 20 a9 10 00    	cmp    %eax,0x10a920
  101e56:	7f 04                	jg     101e5c <getchar+0x24>
  101e58:	b0 00                	mov    $0x0,%al
  101e5a:	c9                   	leave  
  101e5b:	c3                   	ret    
  101e5c:	8d 50 01             	lea    0x1(%eax),%edx
  101e5f:	89 15 28 a9 10 00    	mov    %edx,0x10a928
  101e65:	25 ff 00 00 80       	and    $0x800000ff,%eax
  101e6a:	78 08                	js     101e74 <getchar+0x3c>
  101e6c:	8a 80 40 a9 10 00    	mov    0x10a940(%eax),%al
  101e72:	eb e6                	jmp    101e5a <getchar+0x22>
  101e74:	48                   	dec    %eax
  101e75:	0d 00 ff ff ff       	or     $0xffffff00,%eax
  101e7a:	40                   	inc    %eax
  101e7b:	eb ef                	jmp    101e6c <getchar+0x34>

00101e7d <serial_write>:
  101e7d:	55                   	push   %ebp
  101e7e:	89 e5                	mov    %esp,%ebp
  101e80:	83 ec 10             	sub    $0x10,%esp
  101e83:	ff 75 0c             	push   0xc(%ebp)
  101e86:	ff 75 08             	push   0x8(%ebp)
  101e89:	e8 c1 1b 00 00       	call   103a4f <putstrn>
  101e8e:	8b 45 0c             	mov    0xc(%ebp),%eax
  101e91:	c9                   	leave  
  101e92:	c3                   	ret    

00101e93 <serial_read>:
  101e93:	55                   	push   %ebp
  101e94:	89 e5                	mov    %esp,%ebp
  101e96:	57                   	push   %edi
  101e97:	56                   	push   %esi
  101e98:	53                   	push   %ebx
  101e99:	83 ec 0c             	sub    $0xc,%esp
  101e9c:	8b 7d 08             	mov    0x8(%ebp),%edi
  101e9f:	8b 75 0c             	mov    0xc(%ebp),%esi
  101ea2:	85 f6                	test   %esi,%esi
  101ea4:	74 22                	je     101ec8 <serial_read+0x35>
  101ea6:	bb 00 00 00 00       	mov    $0x0,%ebx
  101eab:	e8 88 ff ff ff       	call   101e38 <getchar>
  101eb0:	88 04 1f             	mov    %al,(%edi,%ebx,1)
  101eb3:	43                   	inc    %ebx
  101eb4:	39 f3                	cmp    %esi,%ebx
  101eb6:	74 06                	je     101ebe <serial_read+0x2b>
  101eb8:	3c 0a                	cmp    $0xa,%al
  101eba:	75 ef                	jne    101eab <serial_read+0x18>
  101ebc:	89 de                	mov    %ebx,%esi
  101ebe:	89 f0                	mov    %esi,%eax
  101ec0:	83 c4 0c             	add    $0xc,%esp
  101ec3:	5b                   	pop    %ebx
  101ec4:	5e                   	pop    %esi
  101ec5:	5f                   	pop    %edi
  101ec6:	5d                   	pop    %ebp
  101ec7:	c3                   	ret    
  101ec8:	be 00 00 00 00       	mov    $0x0,%esi
  101ecd:	eb ef                	jmp    101ebe <serial_read+0x2b>

00101ecf <sem_init>:
  101ecf:	55                   	push   %ebp
  101ed0:	89 e5                	mov    %esp,%ebp
  101ed2:	83 ec 14             	sub    $0x14,%esp
  101ed5:	8b 45 08             	mov    0x8(%ebp),%eax
  101ed8:	8b 55 0c             	mov    0xc(%ebp),%edx
  101edb:	89 10                	mov    %edx,(%eax)
  101edd:	83 c0 04             	add    $0x4,%eax
  101ee0:	50                   	push   %eax
  101ee1:	e8 58 1a 00 00       	call   10393e <list_init>
  101ee6:	83 c4 10             	add    $0x10,%esp
  101ee9:	c9                   	leave  
  101eea:	c3                   	ret    

00101eeb <sem_p>:
  101eeb:	55                   	push   %ebp
  101eec:	89 e5                	mov    %esp,%ebp
  101eee:	53                   	push   %ebx
  101eef:	83 ec 04             	sub    $0x4,%esp
  101ef2:	8b 5d 08             	mov    0x8(%ebp),%ebx
  101ef5:	8b 03                	mov    (%ebx),%eax
  101ef7:	48                   	dec    %eax
  101ef8:	89 03                	mov    %eax,(%ebx)
  101efa:	78 05                	js     101f01 <sem_p+0x16>
  101efc:	8b 5d fc             	mov    -0x4(%ebp),%ebx
  101eff:	c9                   	leave  
  101f00:	c3                   	ret    
  101f01:	e8 7d f2 ff ff       	call   101183 <proc_curr>
  101f06:	83 ec 08             	sub    $0x8,%esp
  101f09:	50                   	push   %eax
  101f0a:	83 c3 04             	add    $0x4,%ebx
  101f0d:	53                   	push   %ebx
  101f0e:	e8 9f 1a 00 00       	call   1039b2 <list_enqueue>
  101f13:	e8 db f3 ff ff       	call   1012f3 <proc_block>
  101f18:	83 c4 10             	add    $0x10,%esp
  101f1b:	eb df                	jmp    101efc <sem_p+0x11>

00101f1d <sem_v>:
  101f1d:	55                   	push   %ebp
  101f1e:	89 e5                	mov    %esp,%ebp
  101f20:	83 ec 08             	sub    $0x8,%esp
  101f23:	8b 55 08             	mov    0x8(%ebp),%edx
  101f26:	8b 02                	mov    (%edx),%eax
  101f28:	40                   	inc    %eax
  101f29:	89 02                	mov    %eax,(%edx)
  101f2b:	85 c0                	test   %eax,%eax
  101f2d:	7e 02                	jle    101f31 <sem_v+0x14>
  101f2f:	c9                   	leave  
  101f30:	c3                   	ret    
  101f31:	83 ec 0c             	sub    $0xc,%esp
  101f34:	83 c2 04             	add    $0x4,%edx
  101f37:	52                   	push   %edx
  101f38:	e8 a5 1a 00 00       	call   1039e2 <list_dequeue>
  101f3d:	89 04 24             	mov    %eax,(%esp)
  101f40:	e8 7c f2 ff ff       	call   1011c1 <proc_addready>
  101f45:	83 c4 10             	add    $0x10,%esp
  101f48:	eb e5                	jmp    101f2f <sem_v+0x12>

00101f4a <usem_alloc>:
  101f4a:	55                   	push   %ebp
  101f4b:	89 e5                	mov    %esp,%ebp
  101f4d:	57                   	push   %edi
  101f4e:	56                   	push   %esi
  101f4f:	53                   	push   %ebx
  101f50:	83 ec 0c             	sub    $0xc,%esp
  101f53:	b8 70 aa 10 00       	mov    $0x10aa70,%eax
  101f58:	bb 00 00 00 00       	mov    $0x0,%ebx
  101f5d:	83 38 00             	cmpl   $0x0,(%eax)
  101f60:	74 13                	je     101f75 <usem_alloc+0x2b>
  101f62:	43                   	inc    %ebx
  101f63:	83 c0 14             	add    $0x14,%eax
  101f66:	81 fb 80 00 00 00    	cmp    $0x80,%ebx
  101f6c:	75 ef                	jne    101f5d <usem_alloc+0x13>
  101f6e:	bf 00 00 00 00       	mov    $0x0,%edi
  101f73:	eb 3f                	jmp    101fb4 <usem_alloc+0x6a>
  101f75:	8d 34 9d 00 00 00 00 	lea    0x0(,%ebx,4),%esi
  101f7c:	8d 04 1e             	lea    (%esi,%ebx,1),%eax
  101f7f:	c1 e0 02             	shl    $0x2,%eax
  101f82:	8d b8 60 aa 10 00    	lea    0x10aa60(%eax),%edi
  101f88:	8d 14 1e             	lea    (%esi,%ebx,1),%edx
  101f8b:	8b 4d 08             	mov    0x8(%ebp),%ecx
  101f8e:	89 88 60 aa 10 00    	mov    %ecx,0x10aa60(%eax)
  101f94:	83 ec 0c             	sub    $0xc,%esp
  101f97:	8d 04 95 64 aa 10 00 	lea    0x10aa64(,%edx,4),%eax
  101f9e:	50                   	push   %eax
  101f9f:	e8 9a 19 00 00       	call   10393e <list_init>
  101fa4:	01 de                	add    %ebx,%esi
  101fa6:	8b 04 b5 70 aa 10 00 	mov    0x10aa70(,%esi,4),%eax
  101fad:	40                   	inc    %eax
  101fae:	89 47 10             	mov    %eax,0x10(%edi)
  101fb1:	83 c4 10             	add    $0x10,%esp
  101fb4:	89 f8                	mov    %edi,%eax
  101fb6:	8d 65 f4             	lea    -0xc(%ebp),%esp
  101fb9:	5b                   	pop    %ebx
  101fba:	5e                   	pop    %esi
  101fbb:	5f                   	pop    %edi
  101fbc:	5d                   	pop    %ebp
  101fbd:	c3                   	ret    

00101fbe <usem_dup>:
  101fbe:	55                   	push   %ebp
  101fbf:	89 e5                	mov    %esp,%ebp
  101fc1:	8b 45 08             	mov    0x8(%ebp),%eax
  101fc4:	ff 40 10             	incl   0x10(%eax)
  101fc7:	5d                   	pop    %ebp
  101fc8:	c3                   	ret    

00101fc9 <usem_close>:
  101fc9:	55                   	push   %ebp
  101fca:	89 e5                	mov    %esp,%ebp
  101fcc:	8b 45 08             	mov    0x8(%ebp),%eax
  101fcf:	ff 48 10             	decl   0x10(%eax)
  101fd2:	5d                   	pop    %ebp
  101fd3:	c3                   	ret    

00101fd4 <init_fs>:
  101fd4:	55                   	push   %ebp
  101fd5:	89 e5                	mov    %esp,%ebp
  101fd7:	57                   	push   %edi
  101fd8:	56                   	push   %esi
  101fd9:	53                   	push   %ebx
  101fda:	81 ec 14 02 00 00    	sub    $0x214,%esp
  101fe0:	68 00 01 00 00       	push   $0x100
  101fe5:	8d 9d e8 fd ff ff    	lea    -0x218(%ebp),%ebx
  101feb:	53                   	push   %ebx
  101fec:	e8 06 05 00 00       	call   1024f7 <read_disk>
  101ff1:	b8 60 b4 10 00       	mov    $0x10b460,%eax
  101ff6:	89 da                	mov    %ebx,%edx
  101ff8:	bb 20 b7 10 00       	mov    $0x10b720,%ebx
  101ffd:	83 c4 10             	add    $0x10,%esp
  102000:	c7 00 01 00 00 00    	movl   $0x1,(%eax)
  102006:	c7 40 04 01 00 00 00 	movl   $0x1,0x4(%eax)
  10200d:	8d 78 0c             	lea    0xc(%eax),%edi
  102010:	b9 08 00 00 00       	mov    $0x8,%ecx
  102015:	89 d6                	mov    %edx,%esi
  102017:	f3 a5                	rep movsl %ds:(%esi),%es:(%edi)
  102019:	83 c0 2c             	add    $0x2c,%eax
  10201c:	83 c2 20             	add    $0x20,%edx
  10201f:	39 d8                	cmp    %ebx,%eax
  102021:	75 dd                	jne    102000 <init_fs+0x2c>
  102023:	8d 65 f4             	lea    -0xc(%ebp),%esp
  102026:	5b                   	pop    %ebx
  102027:	5e                   	pop    %esi
  102028:	5f                   	pop    %edi
  102029:	5d                   	pop    %ebp
  10202a:	c3                   	ret    

0010202b <iopen>:
  10202b:	55                   	push   %ebp
  10202c:	89 e5                	mov    %esp,%ebp
  10202e:	57                   	push   %edi
  10202f:	56                   	push   %esi
  102030:	53                   	push   %ebx
  102031:	83 ec 0c             	sub    $0xc,%esp
  102034:	8b 7d 08             	mov    0x8(%ebp),%edi
  102037:	bb 74 b4 10 00       	mov    $0x10b474,%ebx
  10203c:	be 00 00 00 00       	mov    $0x0,%esi
  102041:	eb 09                	jmp    10204c <iopen+0x21>
  102043:	46                   	inc    %esi
  102044:	83 c3 2c             	add    $0x2c,%ebx
  102047:	83 fe 20             	cmp    $0x20,%esi
  10204a:	74 27                	je     102073 <iopen+0x48>
  10204c:	83 7b ec 00          	cmpl   $0x0,-0x14(%ebx)
  102050:	74 f1                	je     102043 <iopen+0x18>
  102052:	83 ec 08             	sub    $0x8,%esp
  102055:	53                   	push   %ebx
  102056:	57                   	push   %edi
  102057:	e8 1b 25 00 00       	call   104577 <strcmp>
  10205c:	83 c4 10             	add    $0x10,%esp
  10205f:	85 c0                	test   %eax,%eax
  102061:	75 e0                	jne    102043 <iopen+0x18>
  102063:	8d 04 b6             	lea    (%esi,%esi,4),%eax
  102066:	01 c0                	add    %eax,%eax
  102068:	01 f0                	add    %esi,%eax
  10206a:	8d 04 85 60 b4 10 00 	lea    0x10b460(,%eax,4),%eax
  102071:	eb 05                	jmp    102078 <iopen+0x4d>
  102073:	b8 00 00 00 00       	mov    $0x0,%eax
  102078:	8d 65 f4             	lea    -0xc(%ebp),%esp
  10207b:	5b                   	pop    %ebx
  10207c:	5e                   	pop    %esi
  10207d:	5f                   	pop    %edi
  10207e:	5d                   	pop    %ebp
  10207f:	c3                   	ret    

00102080 <iread>:
  102080:	55                   	push   %ebp
  102081:	89 e5                	mov    %esp,%ebp
  102083:	57                   	push   %edi
  102084:	56                   	push   %esi
  102085:	53                   	push   %ebx
  102086:	81 ec 1c 02 00 00    	sub    $0x21c,%esp
  10208c:	8b 45 08             	mov    0x8(%ebp),%eax
  10208f:	8b 4d 14             	mov    0x14(%ebp),%ecx
  102092:	85 c0                	test   %eax,%eax
  102094:	74 38                	je     1020ce <iread+0x4e>
  102096:	8b 58 10             	mov    0x10(%eax),%ebx
  102099:	8b 50 0c             	mov    0xc(%eax),%edx
  10209c:	85 c9                	test   %ecx,%ecx
  10209e:	0f 84 b7 00 00 00    	je     10215b <iread+0xdb>
  1020a4:	39 5d 0c             	cmp    %ebx,0xc(%ebp)
  1020a7:	0f 83 ba 00 00 00    	jae    102167 <iread+0xe7>
  1020ad:	2b 5d 0c             	sub    0xc(%ebp),%ebx
  1020b0:	89 9d dc fd ff ff    	mov    %ebx,-0x224(%ebp)
  1020b6:	89 8d e0 fd ff ff    	mov    %ecx,-0x220(%ebp)
  1020bc:	bb 00 00 00 00       	mov    $0x0,%ebx
  1020c1:	bf ff ff ff ff       	mov    $0xffffffff,%edi
  1020c6:	89 95 d8 fd ff ff    	mov    %edx,-0x228(%ebp)
  1020cc:	eb 40                	jmp    10210e <iread+0x8e>
  1020ce:	83 ec 04             	sub    $0x4,%esp
  1020d1:	68 c7 50 10 00       	push   $0x1050c7
  1020d6:	6a 32                	push   $0x32
  1020d8:	68 cd 50 10 00       	push   $0x1050cd
  1020dd:	e8 d6 19 00 00       	call   103ab8 <abort>
  1020e2:	81 e6 ff 01 00 00    	and    $0x1ff,%esi
  1020e8:	8a 84 35 e8 fd ff ff 	mov    -0x218(%ebp,%esi,1),%al
  1020ef:	8b 55 10             	mov    0x10(%ebp),%edx
  1020f2:	8b 8d e4 fd ff ff    	mov    -0x21c(%ebp),%ecx
  1020f8:	88 04 0a             	mov    %al,(%edx,%ecx,1)
  1020fb:	43                   	inc    %ebx
  1020fc:	8b 85 e0 fd ff ff    	mov    -0x220(%ebp),%eax
  102102:	39 c3                	cmp    %eax,%ebx
  102104:	74 47                	je     10214d <iread+0xcd>
  102106:	39 9d dc fd ff ff    	cmp    %ebx,-0x224(%ebp)
  10210c:	74 33                	je     102141 <iread+0xc1>
  10210e:	89 9d e4 fd ff ff    	mov    %ebx,-0x21c(%ebp)
  102114:	89 de                	mov    %ebx,%esi
  102116:	03 75 0c             	add    0xc(%ebp),%esi
  102119:	89 f8                	mov    %edi,%eax
  10211b:	89 f7                	mov    %esi,%edi
  10211d:	c1 ef 09             	shr    $0x9,%edi
  102120:	39 c7                	cmp    %eax,%edi
  102122:	74 be                	je     1020e2 <iread+0x62>
  102124:	83 ec 08             	sub    $0x8,%esp
  102127:	8b 85 d8 fd ff ff    	mov    -0x228(%ebp),%eax
  10212d:	01 f8                	add    %edi,%eax
  10212f:	50                   	push   %eax
  102130:	8d 85 e8 fd ff ff    	lea    -0x218(%ebp),%eax
  102136:	50                   	push   %eax
  102137:	e8 bb 03 00 00       	call   1024f7 <read_disk>
  10213c:	83 c4 10             	add    $0x10,%esp
  10213f:	eb a1                	jmp    1020e2 <iread+0x62>
  102141:	8b 85 dc fd ff ff    	mov    -0x224(%ebp),%eax
  102147:	89 85 e0 fd ff ff    	mov    %eax,-0x220(%ebp)
  10214d:	8b 85 e0 fd ff ff    	mov    -0x220(%ebp),%eax
  102153:	8d 65 f4             	lea    -0xc(%ebp),%esp
  102156:	5b                   	pop    %ebx
  102157:	5e                   	pop    %esi
  102158:	5f                   	pop    %edi
  102159:	5d                   	pop    %ebp
  10215a:	c3                   	ret    
  10215b:	c7 85 e0 fd ff ff 00 	movl   $0x0,-0x220(%ebp)
  102162:	00 00 00 
  102165:	eb e6                	jmp    10214d <iread+0xcd>
  102167:	c7 85 e0 fd ff ff 00 	movl   $0x0,-0x220(%ebp)
  10216e:	00 00 00 
  102171:	eb da                	jmp    10214d <iread+0xcd>

00102173 <iadddev>:
  102173:	55                   	push   %ebp
  102174:	89 e5                	mov    %esp,%ebp
  102176:	53                   	push   %ebx
  102177:	83 ec 04             	sub    $0x4,%esp
  10217a:	8b 45 0c             	mov    0xc(%ebp),%eax
  10217d:	83 f8 0f             	cmp    $0xf,%eax
  102180:	7f 46                	jg     1021c8 <iadddev+0x55>
  102182:	8d 54 80 50          	lea    0x50(%eax,%eax,4),%edx
  102186:	01 d2                	add    %edx,%edx
  102188:	8d 4c 10 10          	lea    0x10(%eax,%edx,1),%ecx
  10218c:	c1 e1 02             	shl    $0x2,%ecx
  10218f:	c7 81 60 b4 10 00 01 	movl   $0x1,0x10b460(%ecx)
  102196:	00 00 00 
  102199:	c7 81 64 b4 10 00 03 	movl   $0x3,0x10b464(%ecx)
  1021a0:	00 00 00 
  1021a3:	89 81 68 b4 10 00    	mov    %eax,0x10b468(%ecx)
  1021a9:	83 ec 08             	sub    $0x8,%esp
  1021ac:	ff 75 08             	push   0x8(%ebp)
  1021af:	8d 44 10 10          	lea    0x10(%eax,%edx,1),%eax
  1021b3:	8d 04 85 74 b4 10 00 	lea    0x10b474(,%eax,4),%eax
  1021ba:	50                   	push   %eax
  1021bb:	e8 44 24 00 00       	call   104604 <strcpy>
  1021c0:	83 c4 10             	add    $0x10,%esp
  1021c3:	8b 5d fc             	mov    -0x4(%ebp),%ebx
  1021c6:	c9                   	leave  
  1021c7:	c3                   	ret    
  1021c8:	83 ec 04             	sub    $0x4,%esp
  1021cb:	68 dd 50 10 00       	push   $0x1050dd
  1021d0:	6a 44                	push   $0x44
  1021d2:	68 cd 50 10 00       	push   $0x1050cd
  1021d7:	e8 dc 18 00 00       	call   103ab8 <abort>

001021dc <isize>:
  1021dc:	55                   	push   %ebp
  1021dd:	89 e5                	mov    %esp,%ebp
  1021df:	8b 45 08             	mov    0x8(%ebp),%eax
  1021e2:	8b 40 10             	mov    0x10(%eax),%eax
  1021e5:	5d                   	pop    %ebp
  1021e6:	c3                   	ret    

001021e7 <itype>:
  1021e7:	55                   	push   %ebp
  1021e8:	89 e5                	mov    %esp,%ebp
  1021ea:	8b 45 08             	mov    0x8(%ebp),%eax
  1021ed:	8b 40 04             	mov    0x4(%eax),%eax
  1021f0:	5d                   	pop    %ebp
  1021f1:	c3                   	ret    

001021f2 <ino>:
  1021f2:	55                   	push   %ebp
  1021f3:	89 e5                	mov    %esp,%ebp
  1021f5:	8b 45 08             	mov    0x8(%ebp),%eax
  1021f8:	2d 60 b4 10 00       	sub    $0x10b460,%eax
  1021fd:	c1 f8 02             	sar    $0x2,%eax
  102200:	8d 0c c0             	lea    (%eax,%eax,8),%ecx
  102203:	89 ca                	mov    %ecx,%edx
  102205:	c1 e2 05             	shl    $0x5,%edx
  102208:	29 ca                	sub    %ecx,%edx
  10220a:	8d 14 90             	lea    (%eax,%edx,4),%edx
  10220d:	8d 0c d0             	lea    (%eax,%edx,8),%ecx
  102210:	89 ca                	mov    %ecx,%edx
  102212:	c1 e2 0f             	shl    $0xf,%edx
  102215:	29 ca                	sub    %ecx,%edx
  102217:	8d 04 90             	lea    (%eax,%edx,4),%eax
  10221a:	f7 d8                	neg    %eax
  10221c:	5d                   	pop    %ebp
  10221d:	c3                   	ret    

0010221e <idevid>:
  10221e:	55                   	push   %ebp
  10221f:	89 e5                	mov    %esp,%ebp
  102221:	8b 45 08             	mov    0x8(%ebp),%eax
  102224:	83 78 04 03          	cmpl   $0x3,0x4(%eax)
  102228:	75 05                	jne    10222f <idevid+0x11>
  10222a:	8b 40 08             	mov    0x8(%eax),%eax
  10222d:	5d                   	pop    %ebp
  10222e:	c3                   	ret    
  10222f:	b8 ff ff ff ff       	mov    $0xffffffff,%eax
  102234:	eb f7                	jmp    10222d <idevid+0xf>

00102236 <iwrite>:
  102236:	55                   	push   %ebp
  102237:	89 e5                	mov    %esp,%ebp
  102239:	83 ec 0c             	sub    $0xc,%esp
  10223c:	68 ea 50 10 00       	push   $0x1050ea
  102241:	6a 5d                	push   $0x5d
  102243:	68 cd 50 10 00       	push   $0x1050cd
  102248:	e8 6b 18 00 00       	call   103ab8 <abort>

0010224d <itrunc>:
  10224d:	55                   	push   %ebp
  10224e:	89 e5                	mov    %esp,%ebp
  102250:	83 ec 0c             	sub    $0xc,%esp
  102253:	68 00 51 10 00       	push   $0x105100
  102258:	6a 61                	push   $0x61
  10225a:	68 cd 50 10 00       	push   $0x1050cd
  10225f:	e8 54 18 00 00       	call   103ab8 <abort>

00102264 <idup>:
  102264:	55                   	push   %ebp
  102265:	89 e5                	mov    %esp,%ebp
  102267:	8b 45 08             	mov    0x8(%ebp),%eax
  10226a:	5d                   	pop    %ebp
  10226b:	c3                   	ret    

0010226c <iclose>:
  10226c:	c3                   	ret    

0010226d <iremove>:
  10226d:	55                   	push   %ebp
  10226e:	89 e5                	mov    %esp,%ebp
  102270:	83 ec 0c             	sub    $0xc,%esp
  102273:	68 16 51 10 00       	push   $0x105116
  102278:	6a 6b                	push   $0x6b
  10227a:	68 cd 50 10 00       	push   $0x1050cd
  10227f:	e8 34 18 00 00       	call   103ab8 <abort>

00102284 <load_elf>:
  102284:	55                   	push   %ebp
  102285:	89 e5                	mov    %esp,%ebp
  102287:	57                   	push   %edi
  102288:	56                   	push   %esi
  102289:	53                   	push   %ebx
  10228a:	81 ec 84 00 00 00    	sub    $0x84,%esp
  102290:	6a 00                	push   $0x0
  102292:	ff 75 0c             	push   0xc(%ebp)
  102295:	e8 91 fd ff ff       	call   10202b <iopen>
  10229a:	83 c4 10             	add    $0x10,%esp
  10229d:	85 c0                	test   %eax,%eax
  10229f:	0f 84 ec 00 00 00    	je     102391 <load_elf+0x10d>
  1022a5:	89 c6                	mov    %eax,%esi
  1022a7:	6a 34                	push   $0x34
  1022a9:	8d 45 b4             	lea    -0x4c(%ebp),%eax
  1022ac:	50                   	push   %eax
  1022ad:	6a 00                	push   $0x0
  1022af:	56                   	push   %esi
  1022b0:	e8 cb fd ff ff       	call   102080 <iread>
  1022b5:	83 c4 10             	add    $0x10,%esp
  1022b8:	81 7d b4 7f 45 4c 46 	cmpl   $0x464c457f,-0x4c(%ebp)
  1022bf:	75 23                	jne    1022e4 <load_elf+0x60>
  1022c1:	e8 ac 08 00 00       	call   102b72 <vm_curr>
  1022c6:	89 45 84             	mov    %eax,-0x7c(%ebp)
  1022c9:	8b 45 08             	mov    0x8(%ebp),%eax
  1022cc:	0f 22 d8             	mov    %eax,%cr3
  1022cf:	66 83 7d e0 00       	cmpw   $0x0,-0x20(%ebp)
  1022d4:	0f 84 87 00 00 00    	je     102361 <load_elf+0xdd>
  1022da:	bb 00 00 00 00       	mov    $0x0,%ebx
  1022df:	8d 7d 94             	lea    -0x6c(%ebp),%edi
  1022e2:	eb 1f                	jmp    102303 <load_elf+0x7f>
  1022e4:	83 ec 0c             	sub    $0xc,%esp
  1022e7:	56                   	push   %esi
  1022e8:	e8 7f ff ff ff       	call   10226c <iclose>
  1022ed:	83 c4 10             	add    $0x10,%esp
  1022f0:	b8 ff ff ff ff       	mov    $0xffffffff,%eax
  1022f5:	e9 8f 00 00 00       	jmp    102389 <load_elf+0x105>
  1022fa:	43                   	inc    %ebx
  1022fb:	0f b7 45 e0          	movzwl -0x20(%ebp),%eax
  1022ff:	39 d8                	cmp    %ebx,%eax
  102301:	7e 5e                	jle    102361 <load_elf+0xdd>
  102303:	6a 20                	push   $0x20
  102305:	57                   	push   %edi
  102306:	89 d8                	mov    %ebx,%eax
  102308:	c1 e0 05             	shl    $0x5,%eax
  10230b:	03 45 d0             	add    -0x30(%ebp),%eax
  10230e:	50                   	push   %eax
  10230f:	56                   	push   %esi
  102310:	e8 6b fd ff ff       	call   102080 <iread>
  102315:	83 c4 10             	add    $0x10,%esp
  102318:	83 7d 94 01          	cmpl   $0x1,-0x6c(%ebp)
  10231c:	75 dc                	jne    1022fa <load_elf+0x76>
  10231e:	8b 45 ac             	mov    -0x54(%ebp),%eax
  102321:	83 e0 02             	and    $0x2,%eax
  102324:	83 c8 05             	or     $0x5,%eax
  102327:	50                   	push   %eax
  102328:	ff 75 a8             	push   -0x58(%ebp)
  10232b:	ff 75 9c             	push   -0x64(%ebp)
  10232e:	ff 75 08             	push   0x8(%ebp)
  102331:	e8 43 09 00 00       	call   102c79 <vm_map>
  102336:	ff 75 a4             	push   -0x5c(%ebp)
  102339:	ff 75 a0             	push   -0x60(%ebp)
  10233c:	ff 75 98             	push   -0x68(%ebp)
  10233f:	56                   	push   %esi
  102340:	e8 3b fd ff ff       	call   102080 <iread>
  102345:	8b 45 a4             	mov    -0x5c(%ebp),%eax
  102348:	83 c4 1c             	add    $0x1c,%esp
  10234b:	8b 55 a8             	mov    -0x58(%ebp),%edx
  10234e:	29 c2                	sub    %eax,%edx
  102350:	52                   	push   %edx
  102351:	6a 00                	push   $0x0
  102353:	03 45 a0             	add    -0x60(%ebp),%eax
  102356:	50                   	push   %eax
  102357:	e8 f7 21 00 00       	call   104553 <memset>
  10235c:	83 c4 10             	add    $0x10,%esp
  10235f:	eb 99                	jmp    1022fa <load_elf+0x76>
  102361:	6a 07                	push   $0x7
  102363:	68 00 10 00 00       	push   $0x1000
  102368:	68 00 f0 ff bf       	push   $0xbffff000
  10236d:	ff 75 08             	push   0x8(%ebp)
  102370:	e8 04 09 00 00       	call   102c79 <vm_map>
  102375:	8b 45 84             	mov    -0x7c(%ebp),%eax
  102378:	0f 22 d8             	mov    %eax,%cr3
  10237b:	89 34 24             	mov    %esi,(%esp)
  10237e:	e8 e9 fe ff ff       	call   10226c <iclose>
  102383:	8b 45 cc             	mov    -0x34(%ebp),%eax
  102386:	83 c4 10             	add    $0x10,%esp
  102389:	8d 65 f4             	lea    -0xc(%ebp),%esp
  10238c:	5b                   	pop    %ebx
  10238d:	5e                   	pop    %esi
  10238e:	5f                   	pop    %edi
  10238f:	5d                   	pop    %ebp
  102390:	c3                   	ret    
  102391:	b8 ff ff ff ff       	mov    $0xffffffff,%eax
  102396:	eb f1                	jmp    102389 <load_elf+0x105>

00102398 <load_arg>:
  102398:	55                   	push   %ebp
  102399:	89 e5                	mov    %esp,%ebp
  10239b:	57                   	push   %edi
  10239c:	56                   	push   %esi
  10239d:	53                   	push   %ebx
  10239e:	81 ec 90 00 00 00    	sub    $0x90,%esp
  1023a4:	6a 07                	push   $0x7
  1023a6:	68 00 f0 ff bf       	push   $0xbffff000
  1023ab:	ff 75 08             	push   0x8(%ebp)
  1023ae:	e8 74 08 00 00       	call   102c27 <vm_walk>
  1023b3:	8d b0 00 10 00 00    	lea    0x1000(%eax),%esi
  1023b9:	83 c4 10             	add    $0x10,%esp
  1023bc:	bb 00 00 00 00       	mov    $0x0,%ebx
  1023c1:	83 7d 0c 00          	cmpl   $0x0,0xc(%ebp)
  1023c5:	0f 84 b6 00 00 00    	je     102481 <load_arg+0xe9>
  1023cb:	89 df                	mov    %ebx,%edi
  1023cd:	8b 45 0c             	mov    0xc(%ebp),%eax
  1023d0:	8b 04 98             	mov    (%eax,%ebx,4),%eax
  1023d3:	85 c0                	test   %eax,%eax
  1023d5:	74 4e                	je     102425 <load_arg+0x8d>
  1023d7:	83 fb 1f             	cmp    $0x1f,%ebx
  1023da:	74 35                	je     102411 <load_arg+0x79>
  1023dc:	83 ec 0c             	sub    $0xc,%esp
  1023df:	50                   	push   %eax
  1023e0:	e8 04 22 00 00       	call   1045e9 <strlen>
  1023e5:	f7 d0                	not    %eax
  1023e7:	01 c6                	add    %eax,%esi
  1023e9:	83 c4 08             	add    $0x8,%esp
  1023ec:	8b 45 0c             	mov    0xc(%ebp),%eax
  1023ef:	ff 34 b8             	push   (%eax,%edi,4)
  1023f2:	56                   	push   %esi
  1023f3:	e8 0c 22 00 00       	call   104604 <strcpy>
  1023f8:	89 f0                	mov    %esi,%eax
  1023fa:	25 ff 0f 00 00       	and    $0xfff,%eax
  1023ff:	2d 00 10 00 40       	sub    $0x40001000,%eax
  102404:	89 84 bd 68 ff ff ff 	mov    %eax,-0x98(%ebp,%edi,4)
  10240b:	43                   	inc    %ebx
  10240c:	83 c4 10             	add    $0x10,%esp
  10240f:	eb ba                	jmp    1023cb <load_arg+0x33>
  102411:	83 ec 04             	sub    $0x4,%esp
  102414:	68 2d 51 10 00       	push   $0x10512d
  102419:	6a 3c                	push   $0x3c
  10241b:	68 41 51 10 00       	push   $0x105141
  102420:	e8 93 16 00 00       	call   103ab8 <abort>
  102425:	c7 84 9d 68 ff ff ff 	movl   $0x0,-0x98(%ebp,%ebx,4)
  10242c:	00 00 00 00 
  102430:	83 e6 fc             	and    $0xfffffffc,%esi
  102433:	85 db                	test   %ebx,%ebx
  102435:	78 21                	js     102458 <load_arg+0xc0>
  102437:	89 df                	mov    %ebx,%edi
  102439:	f7 df                	neg    %edi
  10243b:	c1 e7 02             	shl    $0x2,%edi
  10243e:	8d 0c 3e             	lea    (%esi,%edi,1),%ecx
  102441:	89 d8                	mov    %ebx,%eax
  102443:	8b 94 85 68 ff ff ff 	mov    -0x98(%ebp,%eax,4),%edx
  10244a:	89 54 81 fc          	mov    %edx,-0x4(%ecx,%eax,4)
  10244e:	48                   	dec    %eax
  10244f:	83 f8 ff             	cmp    $0xffffffff,%eax
  102452:	75 ef                	jne    102443 <load_arg+0xab>
  102454:	8d 74 3e fc          	lea    -0x4(%esi,%edi,1),%esi
  102458:	89 f0                	mov    %esi,%eax
  10245a:	25 ff 0f 00 00       	and    $0xfff,%eax
  10245f:	2d 00 10 00 40       	sub    $0x40001000,%eax
  102464:	89 46 fc             	mov    %eax,-0x4(%esi)
  102467:	89 5e f8             	mov    %ebx,-0x8(%esi)
  10246a:	83 ee 0c             	sub    $0xc,%esi
  10246d:	81 e6 ff 0f 00 00    	and    $0xfff,%esi
  102473:	8d 86 00 f0 ff bf    	lea    -0x40001000(%esi),%eax
  102479:	8d 65 f4             	lea    -0xc(%ebp),%esp
  10247c:	5b                   	pop    %ebx
  10247d:	5e                   	pop    %esi
  10247e:	5f                   	pop    %edi
  10247f:	5d                   	pop    %ebp
  102480:	c3                   	ret    
  102481:	c7 85 68 ff ff ff 00 	movl   $0x0,-0x98(%ebp)
  102488:	00 00 00 
  10248b:	83 e6 fc             	and    $0xfffffffc,%esi
  10248e:	bb 00 00 00 00       	mov    $0x0,%ebx
  102493:	eb a2                	jmp    102437 <load_arg+0x9f>

00102495 <load_user>:
  102495:	55                   	push   %ebp
  102496:	89 e5                	mov    %esp,%ebp
  102498:	56                   	push   %esi
  102499:	53                   	push   %ebx
  10249a:	8b 75 08             	mov    0x8(%ebp),%esi
  10249d:	8b 5d 0c             	mov    0xc(%ebp),%ebx
  1024a0:	83 ec 08             	sub    $0x8,%esp
  1024a3:	ff 75 10             	push   0x10(%ebp)
  1024a6:	56                   	push   %esi
  1024a7:	e8 d8 fd ff ff       	call   102284 <load_elf>
  1024ac:	83 c4 10             	add    $0x10,%esp
  1024af:	83 f8 ff             	cmp    $0xffffffff,%eax
  1024b2:	74 3c                	je     1024f0 <load_user+0x5b>
  1024b4:	c7 43 2c 1b 00 00 00 	movl   $0x1b,0x2c(%ebx)
  1024bb:	c7 03 23 00 00 00    	movl   $0x23,(%ebx)
  1024c1:	89 43 28             	mov    %eax,0x28(%ebx)
  1024c4:	c7 43 38 23 00 00 00 	movl   $0x23,0x38(%ebx)
  1024cb:	83 ec 08             	sub    $0x8,%esp
  1024ce:	ff 75 14             	push   0x14(%ebp)
  1024d1:	56                   	push   %esi
  1024d2:	e8 c1 fe ff ff       	call   102398 <load_arg>
  1024d7:	89 43 34             	mov    %eax,0x34(%ebx)
  1024da:	c7 43 30 02 02 00 00 	movl   $0x202,0x30(%ebx)
  1024e1:	83 c4 10             	add    $0x10,%esp
  1024e4:	b8 00 00 00 00       	mov    $0x0,%eax
  1024e9:	8d 65 f8             	lea    -0x8(%ebp),%esp
  1024ec:	5b                   	pop    %ebx
  1024ed:	5e                   	pop    %esi
  1024ee:	5d                   	pop    %ebp
  1024ef:	c3                   	ret    
  1024f0:	b8 ff ff ff ff       	mov    $0xffffffff,%eax
  1024f5:	eb f2                	jmp    1024e9 <load_user+0x54>

001024f7 <read_disk>:
  1024f7:	55                   	push   %ebp
  1024f8:	89 e5                	mov    %esp,%ebp
  1024fa:	53                   	push   %ebx
  1024fb:	8b 5d 08             	mov    0x8(%ebp),%ebx
  1024fe:	8b 4d 0c             	mov    0xc(%ebp),%ecx
  102501:	ba f7 01 00 00       	mov    $0x1f7,%edx
  102506:	ec                   	in     (%dx),%al
  102507:	83 e0 c0             	and    $0xffffffc0,%eax
  10250a:	3c 40                	cmp    $0x40,%al
  10250c:	75 f8                	jne    102506 <read_disk+0xf>
  10250e:	b0 01                	mov    $0x1,%al
  102510:	ba f2 01 00 00       	mov    $0x1f2,%edx
  102515:	ee                   	out    %al,(%dx)
  102516:	ba f3 01 00 00       	mov    $0x1f3,%edx
  10251b:	88 c8                	mov    %cl,%al
  10251d:	ee                   	out    %al,(%dx)
  10251e:	89 c8                	mov    %ecx,%eax
  102520:	c1 f8 08             	sar    $0x8,%eax
  102523:	ba f4 01 00 00       	mov    $0x1f4,%edx
  102528:	ee                   	out    %al,(%dx)
  102529:	89 c8                	mov    %ecx,%eax
  10252b:	c1 f8 10             	sar    $0x10,%eax
  10252e:	ba f5 01 00 00       	mov    $0x1f5,%edx
  102533:	ee                   	out    %al,(%dx)
  102534:	89 c8                	mov    %ecx,%eax
  102536:	c1 f8 18             	sar    $0x18,%eax
  102539:	83 c8 e0             	or     $0xffffffe0,%eax
  10253c:	ba f6 01 00 00       	mov    $0x1f6,%edx
  102541:	ee                   	out    %al,(%dx)
  102542:	b0 20                	mov    $0x20,%al
  102544:	ba f7 01 00 00       	mov    $0x1f7,%edx
  102549:	ee                   	out    %al,(%dx)
  10254a:	ec                   	in     (%dx),%al
  10254b:	83 e0 c0             	and    $0xffffffc0,%eax
  10254e:	3c 40                	cmp    $0x40,%al
  102550:	75 f8                	jne    10254a <read_disk+0x53>
  102552:	89 d9                	mov    %ebx,%ecx
  102554:	81 c3 00 02 00 00    	add    $0x200,%ebx
  10255a:	ba f0 01 00 00       	mov    $0x1f0,%edx
  10255f:	ed                   	in     (%dx),%eax
  102560:	89 01                	mov    %eax,(%ecx)
  102562:	83 c1 04             	add    $0x4,%ecx
  102565:	39 d9                	cmp    %ebx,%ecx
  102567:	75 f6                	jne    10255f <read_disk+0x68>
  102569:	8b 5d fc             	mov    -0x4(%ebp),%ebx
  10256c:	c9                   	leave  
  10256d:	c3                   	ret    

0010256e <write_disk>:
  10256e:	55                   	push   %ebp
  10256f:	89 e5                	mov    %esp,%ebp
  102571:	53                   	push   %ebx
  102572:	8b 5d 08             	mov    0x8(%ebp),%ebx
  102575:	8b 4d 0c             	mov    0xc(%ebp),%ecx
  102578:	ba f7 01 00 00       	mov    $0x1f7,%edx
  10257d:	ec                   	in     (%dx),%al
  10257e:	83 e0 c0             	and    $0xffffffc0,%eax
  102581:	3c 40                	cmp    $0x40,%al
  102583:	75 f8                	jne    10257d <write_disk+0xf>
  102585:	b0 01                	mov    $0x1,%al
  102587:	ba f2 01 00 00       	mov    $0x1f2,%edx
  10258c:	ee                   	out    %al,(%dx)
  10258d:	ba f3 01 00 00       	mov    $0x1f3,%edx
  102592:	88 c8                	mov    %cl,%al
  102594:	ee                   	out    %al,(%dx)
  102595:	89 c8                	mov    %ecx,%eax
  102597:	c1 f8 08             	sar    $0x8,%eax
  10259a:	ba f4 01 00 00       	mov    $0x1f4,%edx
  10259f:	ee                   	out    %al,(%dx)
  1025a0:	89 c8                	mov    %ecx,%eax
  1025a2:	c1 f8 10             	sar    $0x10,%eax
  1025a5:	ba f5 01 00 00       	mov    $0x1f5,%edx
  1025aa:	ee                   	out    %al,(%dx)
  1025ab:	89 c8                	mov    %ecx,%eax
  1025ad:	c1 f8 18             	sar    $0x18,%eax
  1025b0:	83 c8 e0             	or     $0xffffffe0,%eax
  1025b3:	ba f6 01 00 00       	mov    $0x1f6,%edx
  1025b8:	ee                   	out    %al,(%dx)
  1025b9:	b0 30                	mov    $0x30,%al
  1025bb:	ba f7 01 00 00       	mov    $0x1f7,%edx
  1025c0:	ee                   	out    %al,(%dx)
  1025c1:	ec                   	in     (%dx),%al
  1025c2:	83 e0 c0             	and    $0xffffffc0,%eax
  1025c5:	3c 40                	cmp    $0x40,%al
  1025c7:	75 f8                	jne    1025c1 <write_disk+0x53>
  1025c9:	89 d9                	mov    %ebx,%ecx
  1025cb:	81 c3 00 02 00 00    	add    $0x200,%ebx
  1025d1:	ba f0 01 00 00       	mov    $0x1f0,%edx
  1025d6:	8b 01                	mov    (%ecx),%eax
  1025d8:	ef                   	out    %eax,(%dx)
  1025d9:	83 c1 04             	add    $0x4,%ecx
  1025dc:	39 d9                	cmp    %ebx,%ecx
  1025de:	75 f6                	jne    1025d6 <write_disk+0x68>
  1025e0:	8b 5d fc             	mov    -0x4(%ebp),%ebx
  1025e3:	c9                   	leave  
  1025e4:	c3                   	ret    

001025e5 <copy_from_disk>:
  1025e5:	55                   	push   %ebp
  1025e6:	89 e5                	mov    %esp,%ebp
  1025e8:	57                   	push   %edi
  1025e9:	56                   	push   %esi
  1025ea:	53                   	push   %ebx
  1025eb:	83 ec 0c             	sub    $0xc,%esp
  1025ee:	8b 45 08             	mov    0x8(%ebp),%eax
  1025f1:	8b 55 10             	mov    0x10(%ebp),%edx
  1025f4:	89 c3                	mov    %eax,%ebx
  1025f6:	89 c7                	mov    %eax,%edi
  1025f8:	03 7d 0c             	add    0xc(%ebp),%edi
  1025fb:	89 d6                	mov    %edx,%esi
  1025fd:	85 d2                	test   %edx,%edx
  1025ff:	78 27                	js     102628 <copy_from_disk+0x43>
  102601:	c1 fe 09             	sar    $0x9,%esi
  102604:	39 f8                	cmp    %edi,%eax
  102606:	73 18                	jae    102620 <copy_from_disk+0x3b>
  102608:	83 ec 08             	sub    $0x8,%esp
  10260b:	56                   	push   %esi
  10260c:	53                   	push   %ebx
  10260d:	e8 e5 fe ff ff       	call   1024f7 <read_disk>
  102612:	81 c3 00 02 00 00    	add    $0x200,%ebx
  102618:	46                   	inc    %esi
  102619:	83 c4 10             	add    $0x10,%esp
  10261c:	39 fb                	cmp    %edi,%ebx
  10261e:	72 e8                	jb     102608 <copy_from_disk+0x23>
  102620:	8d 65 f4             	lea    -0xc(%ebp),%esp
  102623:	5b                   	pop    %ebx
  102624:	5e                   	pop    %esi
  102625:	5f                   	pop    %edi
  102626:	5d                   	pop    %ebp
  102627:	c3                   	ret    
  102628:	8d b2 ff 01 00 00    	lea    0x1ff(%edx),%esi
  10262e:	eb d1                	jmp    102601 <copy_from_disk+0x1c>

00102630 <bgetcache>:
  102630:	55                   	push   %ebp
  102631:	89 e5                	mov    %esp,%ebp
  102633:	57                   	push   %edi
  102634:	56                   	push   %esi
  102635:	53                   	push   %ebx
  102636:	83 ec 0c             	sub    $0xc,%esp
  102639:	89 c6                	mov    %eax,%esi
  10263b:	89 c3                	mov    %eax,%ebx
  10263d:	83 e3 0f             	and    $0xf,%ebx
  102640:	89 d8                	mov    %ebx,%eax
  102642:	c1 e0 09             	shl    $0x9,%eax
  102645:	01 d8                	add    %ebx,%eax
  102647:	c1 e0 03             	shl    $0x3,%eax
  10264a:	8d b8 e0 b9 10 00    	lea    0x10b9e0(%eax),%edi
  102650:	83 b8 e0 b9 10 00 00 	cmpl   $0x0,0x10b9e0(%eax)
  102657:	74 10                	je     102669 <bgetcache+0x39>
  102659:	89 da                	mov    %ebx,%edx
  10265b:	c1 e2 09             	shl    $0x9,%edx
  10265e:	01 da                	add    %ebx,%edx
  102660:	39 34 d5 e4 b9 10 00 	cmp    %esi,0x10b9e4(,%edx,8)
  102667:	74 36                	je     10269f <bgetcache+0x6f>
  102669:	83 ec 04             	sub    $0x4,%esp
  10266c:	89 f2                	mov    %esi,%edx
  10266e:	c1 e2 0c             	shl    $0xc,%edx
  102671:	52                   	push   %edx
  102672:	68 00 10 00 00       	push   $0x1000
  102677:	05 e8 b9 10 00       	add    $0x10b9e8,%eax
  10267c:	50                   	push   %eax
  10267d:	e8 63 ff ff ff       	call   1025e5 <copy_from_disk>
  102682:	89 d8                	mov    %ebx,%eax
  102684:	c1 e0 09             	shl    $0x9,%eax
  102687:	8d 14 18             	lea    (%eax,%ebx,1),%edx
  10268a:	c7 04 d5 e0 b9 10 00 	movl   $0x1,0x10b9e0(,%edx,8)
  102691:	01 00 00 00 
  102695:	89 34 d5 e4 b9 10 00 	mov    %esi,0x10b9e4(,%edx,8)
  10269c:	83 c4 10             	add    $0x10,%esp
  10269f:	89 f8                	mov    %edi,%eax
  1026a1:	8d 65 f4             	lea    -0xc(%ebp),%esp
  1026a4:	5b                   	pop    %ebx
  1026a5:	5e                   	pop    %esi
  1026a6:	5f                   	pop    %edi
  1026a7:	5d                   	pop    %ebp
  1026a8:	c3                   	ret    

001026a9 <copy_to_disk>:
  1026a9:	55                   	push   %ebp
  1026aa:	89 e5                	mov    %esp,%ebp
  1026ac:	57                   	push   %edi
  1026ad:	56                   	push   %esi
  1026ae:	53                   	push   %ebx
  1026af:	83 ec 0c             	sub    $0xc,%esp
  1026b2:	8b 45 08             	mov    0x8(%ebp),%eax
  1026b5:	8b 55 10             	mov    0x10(%ebp),%edx
  1026b8:	89 c3                	mov    %eax,%ebx
  1026ba:	89 c7                	mov    %eax,%edi
  1026bc:	03 7d 0c             	add    0xc(%ebp),%edi
  1026bf:	89 d6                	mov    %edx,%esi
  1026c1:	85 d2                	test   %edx,%edx
  1026c3:	78 27                	js     1026ec <copy_to_disk+0x43>
  1026c5:	c1 fe 09             	sar    $0x9,%esi
  1026c8:	39 f8                	cmp    %edi,%eax
  1026ca:	73 18                	jae    1026e4 <copy_to_disk+0x3b>
  1026cc:	83 ec 08             	sub    $0x8,%esp
  1026cf:	56                   	push   %esi
  1026d0:	53                   	push   %ebx
  1026d1:	e8 98 fe ff ff       	call   10256e <write_disk>
  1026d6:	81 c3 00 02 00 00    	add    $0x200,%ebx
  1026dc:	46                   	inc    %esi
  1026dd:	83 c4 10             	add    $0x10,%esp
  1026e0:	39 fb                	cmp    %edi,%ebx
  1026e2:	72 e8                	jb     1026cc <copy_to_disk+0x23>
  1026e4:	8d 65 f4             	lea    -0xc(%ebp),%esp
  1026e7:	5b                   	pop    %ebx
  1026e8:	5e                   	pop    %esi
  1026e9:	5f                   	pop    %edi
  1026ea:	5d                   	pop    %ebp
  1026eb:	c3                   	ret    
  1026ec:	8d b2 ff 01 00 00    	lea    0x1ff(%edx),%esi
  1026f2:	eb d1                	jmp    1026c5 <copy_to_disk+0x1c>

001026f4 <bread>:
  1026f4:	55                   	push   %ebp
  1026f5:	89 e5                	mov    %esp,%ebp
  1026f7:	56                   	push   %esi
  1026f8:	53                   	push   %ebx
  1026f9:	8b 75 0c             	mov    0xc(%ebp),%esi
  1026fc:	8b 5d 14             	mov    0x14(%ebp),%ebx
  1026ff:	8d 04 1e             	lea    (%esi,%ebx,1),%eax
  102702:	3d 00 10 00 00       	cmp    $0x1000,%eax
  102707:	77 23                	ja     10272c <bread+0x38>
  102709:	8b 45 10             	mov    0x10(%ebp),%eax
  10270c:	e8 1f ff ff ff       	call   102630 <bgetcache>
  102711:	83 ec 04             	sub    $0x4,%esp
  102714:	56                   	push   %esi
  102715:	8d 44 03 08          	lea    0x8(%ebx,%eax,1),%eax
  102719:	50                   	push   %eax
  10271a:	ff 75 08             	push   0x8(%ebp)
  10271d:	e8 9f 1e 00 00       	call   1045c1 <memcpy>
  102722:	83 c4 10             	add    $0x10,%esp
  102725:	8d 65 f8             	lea    -0x8(%ebp),%esp
  102728:	5b                   	pop    %ebx
  102729:	5e                   	pop    %esi
  10272a:	5d                   	pop    %ebp
  10272b:	c3                   	ret    
  10272c:	83 ec 04             	sub    $0x4,%esp
  10272f:	68 55 51 10 00       	push   $0x105155
  102734:	6a 49                	push   $0x49
  102736:	68 6c 51 10 00       	push   $0x10516c
  10273b:	e8 78 13 00 00       	call   103ab8 <abort>

00102740 <bwrite>:
  102740:	55                   	push   %ebp
  102741:	89 e5                	mov    %esp,%ebp
  102743:	57                   	push   %edi
  102744:	56                   	push   %esi
  102745:	53                   	push   %ebx
  102746:	83 ec 0c             	sub    $0xc,%esp
  102749:	8b 7d 0c             	mov    0xc(%ebp),%edi
  10274c:	8b 75 14             	mov    0x14(%ebp),%esi
  10274f:	8d 04 37             	lea    (%edi,%esi,1),%eax
  102752:	3d 00 10 00 00       	cmp    $0x1000,%eax
  102757:	77 3e                	ja     102797 <bwrite+0x57>
  102759:	8b 45 10             	mov    0x10(%ebp),%eax
  10275c:	e8 cf fe ff ff       	call   102630 <bgetcache>
  102761:	89 c3                	mov    %eax,%ebx
  102763:	83 ec 04             	sub    $0x4,%esp
  102766:	57                   	push   %edi
  102767:	ff 75 08             	push   0x8(%ebp)
  10276a:	8d 44 30 08          	lea    0x8(%eax,%esi,1),%eax
  10276e:	50                   	push   %eax
  10276f:	e8 4d 1e 00 00       	call   1045c1 <memcpy>
  102774:	83 c4 0c             	add    $0xc,%esp
  102777:	8b 45 10             	mov    0x10(%ebp),%eax
  10277a:	c1 e0 0c             	shl    $0xc,%eax
  10277d:	50                   	push   %eax
  10277e:	68 00 10 00 00       	push   $0x1000
  102783:	83 c3 08             	add    $0x8,%ebx
  102786:	53                   	push   %ebx
  102787:	e8 1d ff ff ff       	call   1026a9 <copy_to_disk>
  10278c:	83 c4 10             	add    $0x10,%esp
  10278f:	8d 65 f4             	lea    -0xc(%ebp),%esp
  102792:	5b                   	pop    %ebx
  102793:	5e                   	pop    %esi
  102794:	5f                   	pop    %edi
  102795:	5d                   	pop    %ebp
  102796:	c3                   	ret    
  102797:	83 ec 04             	sub    $0x4,%esp
  10279a:	68 55 51 10 00       	push   $0x105155
  10279f:	6a 50                	push   $0x50
  1027a1:	68 6c 51 10 00       	push   $0x10516c
  1027a6:	e8 0d 13 00 00       	call   103ab8 <abort>

001027ab <bzero>:
  1027ab:	55                   	push   %ebp
  1027ac:	89 e5                	mov    %esp,%ebp
  1027ae:	53                   	push   %ebx
  1027af:	83 ec 04             	sub    $0x4,%esp
  1027b2:	8b 45 08             	mov    0x8(%ebp),%eax
  1027b5:	e8 76 fe ff ff       	call   102630 <bgetcache>
  1027ba:	8d 58 08             	lea    0x8(%eax),%ebx
  1027bd:	83 ec 04             	sub    $0x4,%esp
  1027c0:	68 00 10 00 00       	push   $0x1000
  1027c5:	6a 00                	push   $0x0
  1027c7:	53                   	push   %ebx
  1027c8:	e8 86 1d 00 00       	call   104553 <memset>
  1027cd:	83 c4 0c             	add    $0xc,%esp
  1027d0:	8b 45 08             	mov    0x8(%ebp),%eax
  1027d3:	c1 e0 0c             	shl    $0xc,%eax
  1027d6:	50                   	push   %eax
  1027d7:	68 00 10 00 00       	push   $0x1000
  1027dc:	53                   	push   %ebx
  1027dd:	e8 c7 fe ff ff       	call   1026a9 <copy_to_disk>
  1027e2:	83 c4 10             	add    $0x10,%esp
  1027e5:	8b 5d fc             	mov    -0x4(%ebp),%ebx
  1027e8:	c9                   	leave  
  1027e9:	c3                   	ret    

001027ea <init_gdt>:
  1027ea:	66 c7 05 28 c0 11 00 	movw   $0xffff,0x11c028
  1027f1:	ff ff 
  1027f3:	66 c7 05 2a c0 11 00 	movw   $0x0,0x11c02a
  1027fa:	00 00 
  1027fc:	c6 05 2c c0 11 00 00 	movb   $0x0,0x11c02c
  102803:	c6 05 2d c0 11 00 9a 	movb   $0x9a,0x11c02d
  10280a:	c6 05 2e c0 11 00 cf 	movb   $0xcf,0x11c02e
  102811:	c6 05 2f c0 11 00 00 	movb   $0x0,0x11c02f
  102818:	66 c7 05 30 c0 11 00 	movw   $0xffff,0x11c030
  10281f:	ff ff 
  102821:	66 c7 05 32 c0 11 00 	movw   $0x0,0x11c032
  102828:	00 00 
  10282a:	c6 05 34 c0 11 00 00 	movb   $0x0,0x11c034
  102831:	c6 05 35 c0 11 00 92 	movb   $0x92,0x11c035
  102838:	c6 05 36 c0 11 00 cf 	movb   $0xcf,0x11c036
  10283f:	c6 05 37 c0 11 00 00 	movb   $0x0,0x11c037
  102846:	66 c7 05 38 c0 11 00 	movw   $0xffff,0x11c038
  10284d:	ff ff 
  10284f:	66 c7 05 3a c0 11 00 	movw   $0x0,0x11c03a
  102856:	00 00 
  102858:	c6 05 3c c0 11 00 00 	movb   $0x0,0x11c03c
  10285f:	c6 05 3d c0 11 00 fa 	movb   $0xfa,0x11c03d
  102866:	c6 05 3e c0 11 00 cf 	movb   $0xcf,0x11c03e
  10286d:	c6 05 3f c0 11 00 00 	movb   $0x0,0x11c03f
  102874:	66 c7 05 40 c0 11 00 	movw   $0xffff,0x11c040
  10287b:	ff ff 
  10287d:	66 c7 05 42 c0 11 00 	movw   $0x0,0x11c042
  102884:	00 00 
  102886:	c6 05 44 c0 11 00 00 	movb   $0x0,0x11c044
  10288d:	c6 05 45 c0 11 00 f2 	movb   $0xf2,0x11c045
  102894:	c6 05 46 c0 11 00 cf 	movb   $0xcf,0x11c046
  10289b:	c6 05 47 c0 11 00 00 	movb   $0x0,0x11c047
  1028a2:	66 c7 05 48 c0 11 00 	movw   $0x67,0x11c048
  1028a9:	67 00 
  1028ab:	b8 00 e0 15 00       	mov    $0x15e000,%eax
  1028b0:	66 a3 4a c0 11 00    	mov    %ax,0x11c04a
  1028b6:	89 c2                	mov    %eax,%edx
  1028b8:	c1 ea 10             	shr    $0x10,%edx
  1028bb:	88 15 4c c0 11 00    	mov    %dl,0x11c04c
  1028c1:	c6 05 4d c0 11 00 89 	movb   $0x89,0x11c04d
  1028c8:	c6 05 4e c0 11 00 40 	movb   $0x40,0x11c04e
  1028cf:	c1 e8 18             	shr    $0x18,%eax
  1028d2:	a2 4f c0 11 00       	mov    %al,0x11c04f
  1028d7:	66 c7 05 04 c0 11 00 	movw   $0x30,0x11c004
  1028de:	30 00 
  1028e0:	c7 05 06 c0 11 00 20 	movl   $0x11c020,0x11c006
  1028e7:	c0 11 00 
  1028ea:	b8 04 c0 11 00       	mov    $0x11c004,%eax
  1028ef:	0f 01 10             	lgdtl  (%eax)
  1028f2:	b8 28 00 00 00       	mov    $0x28,%eax
  1028f7:	0f 00 d8             	ltr    %ax
  1028fa:	c3                   	ret    

001028fb <set_tss>:
  1028fb:	55                   	push   %ebp
  1028fc:	89 e5                	mov    %esp,%ebp
  1028fe:	8b 45 08             	mov    0x8(%ebp),%eax
  102901:	a3 08 e0 15 00       	mov    %eax,0x15e008
  102906:	8b 45 0c             	mov    0xc(%ebp),%eax
  102909:	a3 04 e0 15 00       	mov    %eax,0x15e004
  10290e:	5d                   	pop    %ebp
  10290f:	c3                   	ret    

00102910 <init_page>:
  102910:	55                   	push   %ebp
  102911:	89 e5                	mov    %esp,%ebp
  102913:	57                   	push   %edi
  102914:	56                   	push   %esi
  102915:	53                   	push   %ebx
  102916:	83 ec 1c             	sub    $0x1c,%esp
  102919:	b8 a0 fa 15 00       	mov    $0x15faa0,%eax
  10291e:	3d ff ef 1f 00       	cmp    $0x1fefff,%eax
  102923:	0f 87 c7 00 00 00    	ja     1029f0 <init_page+0xe0>
  102929:	be 00 e0 11 00       	mov    $0x11e000,%esi
  10292e:	89 f2                	mov    %esi,%edx
  102930:	b8 00 00 00 00       	mov    $0x0,%eax
  102935:	89 d1                	mov    %edx,%ecx
  102937:	83 c9 03             	or     $0x3,%ecx
  10293a:	89 0c 85 00 d0 11 00 	mov    %ecx,0x11d000(,%eax,4)
  102941:	40                   	inc    %eax
  102942:	81 c2 00 10 00 00    	add    $0x1000,%edx
  102948:	83 f8 20             	cmp    $0x20,%eax
  10294b:	75 e8                	jne    102935 <init_page+0x25>
  10294d:	bf 00 e0 13 00       	mov    $0x13e000,%edi
  102952:	bb 00 00 00 00       	mov    $0x0,%ebx
  102957:	89 f1                	mov    %esi,%ecx
  102959:	b8 00 00 00 00       	mov    $0x0,%eax
  10295e:	89 c2                	mov    %eax,%edx
  102960:	09 da                	or     %ebx,%edx
  102962:	83 ca 03             	or     $0x3,%edx
  102965:	89 11                	mov    %edx,(%ecx)
  102967:	05 00 10 00 00       	add    $0x1000,%eax
  10296c:	83 c1 04             	add    $0x4,%ecx
  10296f:	3d 00 00 40 00       	cmp    $0x400000,%eax
  102974:	75 e8                	jne    10295e <init_page+0x4e>
  102976:	81 c6 00 10 00 00    	add    $0x1000,%esi
  10297c:	81 c3 00 00 40 00    	add    $0x400000,%ebx
  102982:	39 fe                	cmp    %edi,%esi
  102984:	75 d1                	jne    102957 <init_page+0x47>
  102986:	c7 05 00 e0 11 00 00 	movl   $0x0,0x11e000
  10298d:	00 00 00 
  102990:	b8 00 d0 11 00       	mov    $0x11d000,%eax
  102995:	0f 22 d8             	mov    %eax,%cr3
  102998:	0f 20 c0             	mov    %cr0,%eax
  10299b:	89 45 e4             	mov    %eax,-0x1c(%ebp)
  10299e:	8b 45 e4             	mov    -0x1c(%ebp),%eax
  1029a1:	0d 00 00 00 80       	or     $0x80000000,%eax
  1029a6:	0f 22 c0             	mov    %eax,%cr0
  1029a9:	c7 05 00 c0 11 00 00 	movl   $0x0,0x11c000
  1029b0:	00 00 00 
  1029b3:	b8 00 00 20 00       	mov    $0x200000,%eax
  1029b8:	8b 15 00 c0 11 00    	mov    0x11c000,%edx
  1029be:	a3 00 c0 11 00       	mov    %eax,0x11c000
  1029c3:	89 10                	mov    %edx,(%eax)
  1029c5:	05 00 10 00 00       	add    $0x1000,%eax
  1029ca:	3d 00 00 00 08       	cmp    $0x8000000,%eax
  1029cf:	75 e7                	jne    1029b8 <init_page+0xa8>
  1029d1:	83 ec 04             	sub    $0x4,%esp
  1029d4:	68 00 00 02 00       	push   $0x20000
  1029d9:	6a 00                	push   $0x0
  1029db:	68 00 e0 13 00       	push   $0x13e000
  1029e0:	e8 6e 1b 00 00       	call   104553 <memset>
  1029e5:	83 c4 10             	add    $0x10,%esp
  1029e8:	8d 65 f4             	lea    -0xc(%ebp),%esp
  1029eb:	5b                   	pop    %ebx
  1029ec:	5e                   	pop    %esi
  1029ed:	5f                   	pop    %edi
  1029ee:	5d                   	pop    %ebp
  1029ef:	c3                   	ret    
  1029f0:	83 ec 04             	sub    $0x4,%esp
  1029f3:	68 7e 51 10 00       	push   $0x10517e
  1029f8:	6a 26                	push   $0x26
  1029fa:	68 93 51 10 00       	push   $0x105193
  1029ff:	e8 b4 10 00 00       	call   103ab8 <abort>

00102a04 <kalloc>:
  102a04:	55                   	push   %ebp
  102a05:	89 e5                	mov    %esp,%ebp
  102a07:	53                   	push   %ebx
  102a08:	83 ec 04             	sub    $0x4,%esp
  102a0b:	8b 1d 00 c0 11 00    	mov    0x11c000,%ebx
  102a11:	85 db                	test   %ebx,%ebx
  102a13:	74 2a                	je     102a3f <kalloc+0x3b>
  102a15:	8b 03                	mov    (%ebx),%eax
  102a17:	a3 00 c0 11 00       	mov    %eax,0x11c000
  102a1c:	83 ec 04             	sub    $0x4,%esp
  102a1f:	68 00 10 00 00       	push   $0x1000
  102a24:	6a 00                	push   $0x0
  102a26:	53                   	push   %ebx
  102a27:	e8 27 1b 00 00       	call   104553 <memset>
  102a2c:	89 d8                	mov    %ebx,%eax
  102a2e:	c1 e8 0c             	shr    $0xc,%eax
  102a31:	c7 04 85 00 e0 13 00 	movl   $0x1,0x13e000(,%eax,4)
  102a38:	01 00 00 00 
  102a3c:	83 c4 10             	add    $0x10,%esp
  102a3f:	89 d8                	mov    %ebx,%eax
  102a41:	8b 5d fc             	mov    -0x4(%ebp),%ebx
  102a44:	c9                   	leave  
  102a45:	c3                   	ret    

00102a46 <kfree>:
  102a46:	55                   	push   %ebp
  102a47:	89 e5                	mov    %esp,%ebp
  102a49:	83 ec 08             	sub    $0x8,%esp
  102a4c:	8b 45 08             	mov    0x8(%ebp),%eax
  102a4f:	8d 90 00 00 e0 ff    	lea    -0x200000(%eax),%edx
  102a55:	81 fa ff ff df 07    	cmp    $0x7dfffff,%edx
  102a5b:	77 40                	ja     102a9d <kfree+0x57>
  102a5d:	a9 ff 0f 00 00       	test   $0xfff,%eax
  102a62:	75 39                	jne    102a9d <kfree+0x57>
  102a64:	89 c1                	mov    %eax,%ecx
  102a66:	c1 e9 0c             	shr    $0xc,%ecx
  102a69:	8b 14 8d 00 e0 13 00 	mov    0x13e000(,%ecx,4),%edx
  102a70:	4a                   	dec    %edx
  102a71:	89 14 8d 00 e0 13 00 	mov    %edx,0x13e000(,%ecx,4)
  102a78:	75 23                	jne    102a9d <kfree+0x57>
  102a7a:	8b 15 00 c0 11 00    	mov    0x11c000,%edx
  102a80:	85 d2                	test   %edx,%edx
  102a82:	74 1b                	je     102a9f <kfree+0x59>
  102a84:	8b 12                	mov    (%edx),%edx
  102a86:	89 10                	mov    %edx,(%eax)
  102a88:	a3 00 c0 11 00       	mov    %eax,0x11c000
  102a8d:	83 ec 04             	sub    $0x4,%esp
  102a90:	6a 04                	push   $0x4
  102a92:	6a 00                	push   $0x0
  102a94:	50                   	push   %eax
  102a95:	e8 b9 1a 00 00       	call   104553 <memset>
  102a9a:	83 c4 10             	add    $0x10,%esp
  102a9d:	c9                   	leave  
  102a9e:	c3                   	ret    
  102a9f:	a3 00 c0 11 00       	mov    %eax,0x11c000
  102aa4:	c7 00 00 00 00 00    	movl   $0x0,(%eax)
  102aaa:	83 ec 04             	sub    $0x4,%esp
  102aad:	6a 04                	push   $0x4
  102aaf:	6a 00                	push   $0x0
  102ab1:	50                   	push   %eax
  102ab2:	e8 9c 1a 00 00       	call   104553 <memset>
  102ab7:	83 c4 10             	add    $0x10,%esp
  102aba:	eb e1                	jmp    102a9d <kfree+0x57>

00102abc <vm_alloc>:
  102abc:	55                   	push   %ebp
  102abd:	89 e5                	mov    %esp,%ebp
  102abf:	56                   	push   %esi
  102ac0:	53                   	push   %ebx
  102ac1:	e8 3e ff ff ff       	call   102a04 <kalloc>
  102ac6:	89 c3                	mov    %eax,%ebx
  102ac8:	b8 00 e0 11 00       	mov    $0x11e000,%eax
  102acd:	be 00 e0 13 00       	mov    $0x13e000,%esi
  102ad2:	89 da                	mov    %ebx,%edx
  102ad4:	89 c1                	mov    %eax,%ecx
  102ad6:	83 c9 03             	or     $0x3,%ecx
  102ad9:	89 0a                	mov    %ecx,(%edx)
  102adb:	05 00 10 00 00       	add    $0x1000,%eax
  102ae0:	83 c2 04             	add    $0x4,%edx
  102ae3:	39 f0                	cmp    %esi,%eax
  102ae5:	75 ed                	jne    102ad4 <vm_alloc+0x18>
  102ae7:	8d 83 80 00 00 00    	lea    0x80(%ebx),%eax
  102aed:	8d 93 00 10 00 00    	lea    0x1000(%ebx),%edx
  102af3:	c7 00 00 00 00 00    	movl   $0x0,(%eax)
  102af9:	83 c0 04             	add    $0x4,%eax
  102afc:	39 d0                	cmp    %edx,%eax
  102afe:	75 f3                	jne    102af3 <vm_alloc+0x37>
  102b00:	89 d8                	mov    %ebx,%eax
  102b02:	5b                   	pop    %ebx
  102b03:	5e                   	pop    %esi
  102b04:	5d                   	pop    %ebp
  102b05:	c3                   	ret    

00102b06 <vm_teardown>:
  102b06:	55                   	push   %ebp
  102b07:	89 e5                	mov    %esp,%ebp
  102b09:	57                   	push   %edi
  102b0a:	56                   	push   %esi
  102b0b:	53                   	push   %ebx
  102b0c:	83 ec 1c             	sub    $0x1c,%esp
  102b0f:	bf 20 00 00 00       	mov    $0x20,%edi
  102b14:	8b 45 08             	mov    0x8(%ebp),%eax
  102b17:	8b 04 b8             	mov    (%eax,%edi,4),%eax
  102b1a:	89 45 e4             	mov    %eax,-0x1c(%ebp)
  102b1d:	89 c6                	mov    %eax,%esi
  102b1f:	81 e6 00 f0 ff ff    	and    $0xfffff000,%esi
  102b25:	bb 00 00 00 00       	mov    $0x0,%ebx
  102b2a:	83 ec 0c             	sub    $0xc,%esp
  102b2d:	8b 04 9e             	mov    (%esi,%ebx,4),%eax
  102b30:	25 00 f0 ff ff       	and    $0xfffff000,%eax
  102b35:	50                   	push   %eax
  102b36:	e8 0b ff ff ff       	call   102a46 <kfree>
  102b3b:	43                   	inc    %ebx
  102b3c:	83 c4 10             	add    $0x10,%esp
  102b3f:	81 fb 00 04 00 00    	cmp    $0x400,%ebx
  102b45:	75 e3                	jne    102b2a <vm_teardown+0x24>
  102b47:	83 ec 0c             	sub    $0xc,%esp
  102b4a:	56                   	push   %esi
  102b4b:	e8 f6 fe ff ff       	call   102a46 <kfree>
  102b50:	47                   	inc    %edi
  102b51:	83 c4 10             	add    $0x10,%esp
  102b54:	81 ff 00 04 00 00    	cmp    $0x400,%edi
  102b5a:	75 b8                	jne    102b14 <vm_teardown+0xe>
  102b5c:	83 ec 0c             	sub    $0xc,%esp
  102b5f:	ff 75 08             	push   0x8(%ebp)
  102b62:	e8 df fe ff ff       	call   102a46 <kfree>
  102b67:	83 c4 10             	add    $0x10,%esp
  102b6a:	8d 65 f4             	lea    -0xc(%ebp),%esp
  102b6d:	5b                   	pop    %ebx
  102b6e:	5e                   	pop    %esi
  102b6f:	5f                   	pop    %edi
  102b70:	5d                   	pop    %ebp
  102b71:	c3                   	ret    

00102b72 <vm_curr>:
  102b72:	55                   	push   %ebp
  102b73:	89 e5                	mov    %esp,%ebp
  102b75:	83 ec 10             	sub    $0x10,%esp
  102b78:	0f 20 d8             	mov    %cr3,%eax
  102b7b:	89 45 fc             	mov    %eax,-0x4(%ebp)
  102b7e:	8b 45 fc             	mov    -0x4(%ebp),%eax
  102b81:	25 00 f0 ff ff       	and    $0xfffff000,%eax
  102b86:	c9                   	leave  
  102b87:	c3                   	ret    

00102b88 <vm_walkpte>:
  102b88:	55                   	push   %ebp
  102b89:	89 e5                	mov    %esp,%ebp
  102b8b:	57                   	push   %edi
  102b8c:	56                   	push   %esi
  102b8d:	53                   	push   %ebx
  102b8e:	83 ec 0c             	sub    $0xc,%esp
  102b91:	8b 75 08             	mov    0x8(%ebp),%esi
  102b94:	8b 5d 0c             	mov    0xc(%ebp),%ebx
  102b97:	83 7d 10 07          	cmpl   $0x7,0x10(%ebp)
  102b9b:	77 29                	ja     102bc6 <vm_walkpte+0x3e>
  102b9d:	81 fb ff ff ff 07    	cmp    $0x7ffffff,%ebx
  102ba3:	76 38                	jbe    102bdd <vm_walkpte+0x55>
  102ba5:	89 df                	mov    %ebx,%edi
  102ba7:	c1 ef 16             	shr    $0x16,%edi
  102baa:	c1 eb 0c             	shr    $0xc,%ebx
  102bad:	81 e3 ff 03 00 00    	and    $0x3ff,%ebx
  102bb3:	f6 04 be 01          	testb  $0x1,(%esi,%edi,4)
  102bb7:	75 55                	jne    102c0e <vm_walkpte+0x86>
  102bb9:	f6 45 10 01          	testb  $0x1,0x10(%ebp)
  102bbd:	75 35                	jne    102bf4 <vm_walkpte+0x6c>
  102bbf:	b8 00 00 00 00       	mov    $0x0,%eax
  102bc4:	eb 59                	jmp    102c1f <vm_walkpte+0x97>
  102bc6:	83 ec 04             	sub    $0x4,%esp
  102bc9:	68 a4 51 10 00       	push   $0x1051a4
  102bce:	68 94 00 00 00       	push   $0x94
  102bd3:	68 93 51 10 00       	push   $0x105193
  102bd8:	e8 db 0e 00 00       	call   103ab8 <abort>
  102bdd:	83 ec 04             	sub    $0x4,%esp
  102be0:	68 b5 51 10 00       	push   $0x1051b5
  102be5:	68 96 00 00 00       	push   $0x96
  102bea:	68 93 51 10 00       	push   $0x105193
  102bef:	e8 c4 0e 00 00       	call   103ab8 <abort>
  102bf4:	e8 0b fe ff ff       	call   102a04 <kalloc>
  102bf9:	89 c2                	mov    %eax,%edx
  102bfb:	25 00 f0 ff ff       	and    $0xfffff000,%eax
  102c00:	0b 45 10             	or     0x10(%ebp),%eax
  102c03:	83 c8 01             	or     $0x1,%eax
  102c06:	89 04 be             	mov    %eax,(%esi,%edi,4)
  102c09:	8d 04 9a             	lea    (%edx,%ebx,4),%eax
  102c0c:	eb 11                	jmp    102c1f <vm_walkpte+0x97>
  102c0e:	8b 45 10             	mov    0x10(%ebp),%eax
  102c11:	09 04 be             	or     %eax,(%esi,%edi,4)
  102c14:	8b 04 be             	mov    (%esi,%edi,4),%eax
  102c17:	25 00 f0 ff ff       	and    $0xfffff000,%eax
  102c1c:	8d 04 98             	lea    (%eax,%ebx,4),%eax
  102c1f:	8d 65 f4             	lea    -0xc(%ebp),%esp
  102c22:	5b                   	pop    %ebx
  102c23:	5e                   	pop    %esi
  102c24:	5f                   	pop    %edi
  102c25:	5d                   	pop    %ebp
  102c26:	c3                   	ret    

00102c27 <vm_walk>:
  102c27:	55                   	push   %ebp
  102c28:	89 e5                	mov    %esp,%ebp
  102c2a:	83 ec 08             	sub    $0x8,%esp
  102c2d:	8b 45 0c             	mov    0xc(%ebp),%eax
  102c30:	3d ff ff ff 07       	cmp    $0x7ffffff,%eax
  102c35:	76 24                	jbe    102c5b <vm_walk+0x34>
  102c37:	83 ec 04             	sub    $0x4,%esp
  102c3a:	ff 75 10             	push   0x10(%ebp)
  102c3d:	50                   	push   %eax
  102c3e:	ff 75 08             	push   0x8(%ebp)
  102c41:	e8 42 ff ff ff       	call   102b88 <vm_walkpte>
  102c46:	83 c4 10             	add    $0x10,%esp
  102c49:	85 c0                	test   %eax,%eax
  102c4b:	74 0c                	je     102c59 <vm_walk+0x32>
  102c4d:	f6 00 01             	testb  $0x1,(%eax)
  102c50:	74 20                	je     102c72 <vm_walk+0x4b>
  102c52:	8b 00                	mov    (%eax),%eax
  102c54:	25 00 f0 ff ff       	and    $0xfffff000,%eax
  102c59:	c9                   	leave  
  102c5a:	c3                   	ret    
  102c5b:	83 ec 04             	sub    $0x4,%esp
  102c5e:	68 b5 51 10 00       	push   $0x1051b5
  102c63:	68 ad 00 00 00       	push   $0xad
  102c68:	68 93 51 10 00       	push   $0x105193
  102c6d:	e8 46 0e 00 00       	call   103ab8 <abort>
  102c72:	b8 00 00 00 00       	mov    $0x0,%eax
  102c77:	eb e0                	jmp    102c59 <vm_walk+0x32>

00102c79 <vm_map>:
  102c79:	55                   	push   %ebp
  102c7a:	89 e5                	mov    %esp,%ebp
  102c7c:	57                   	push   %edi
  102c7d:	56                   	push   %esi
  102c7e:	53                   	push   %ebx
  102c7f:	83 ec 1c             	sub    $0x1c,%esp
  102c82:	8b 45 0c             	mov    0xc(%ebp),%eax
  102c85:	8b 75 14             	mov    0x14(%ebp),%esi
  102c88:	f7 c6 01 00 00 00    	test   $0x1,%esi
  102c8e:	74 2e                	je     102cbe <vm_map+0x45>
  102c90:	83 fe 07             	cmp    $0x7,%esi
  102c93:	77 40                	ja     102cd5 <vm_map+0x5c>
  102c95:	89 c7                	mov    %eax,%edi
  102c97:	81 e7 00 f0 ff ff    	and    $0xfffff000,%edi
  102c9d:	8b 55 10             	mov    0x10(%ebp),%edx
  102ca0:	8d 8c 10 ff 0f 00 00 	lea    0xfff(%eax,%edx,1),%ecx
  102ca7:	81 e1 00 f0 ff ff    	and    $0xfffff000,%ecx
  102cad:	39 f9                	cmp    %edi,%ecx
  102caf:	72 3b                	jb     102cec <vm_map+0x73>
  102cb1:	39 cf                	cmp    %ecx,%edi
  102cb3:	0f 83 9b 00 00 00    	jae    102d54 <vm_map+0xdb>
  102cb9:	89 4d e4             	mov    %ecx,-0x1c(%ebp)
  102cbc:	eb 67                	jmp    102d25 <vm_map+0xac>
  102cbe:	83 ec 04             	sub    $0x4,%esp
  102cc1:	68 c3 51 10 00       	push   $0x1051c3
  102cc6:	68 b6 00 00 00       	push   $0xb6
  102ccb:	68 93 51 10 00       	push   $0x105193
  102cd0:	e8 e3 0d 00 00       	call   103ab8 <abort>
  102cd5:	83 ec 04             	sub    $0x4,%esp
  102cd8:	68 a4 51 10 00       	push   $0x1051a4
  102cdd:	68 b7 00 00 00       	push   $0xb7
  102ce2:	68 93 51 10 00       	push   $0x105193
  102ce7:	e8 cc 0d 00 00       	call   103ab8 <abort>
  102cec:	83 ec 04             	sub    $0x4,%esp
  102cef:	68 d0 51 10 00       	push   $0x1051d0
  102cf4:	68 ba 00 00 00       	push   $0xba
  102cf9:	68 93 51 10 00       	push   $0x105193
  102cfe:	e8 b5 0d 00 00       	call   103ab8 <abort>
  102d03:	09 30                	or     %esi,(%eax)
  102d05:	8a 00                	mov    (%eax),%al
  102d07:	d0 e8                	shr    %al
  102d09:	83 e0 01             	and    $0x1,%eax
  102d0c:	c1 e0 07             	shl    $0x7,%eax
  102d0f:	8a 13                	mov    (%ebx),%dl
  102d11:	83 e2 7f             	and    $0x7f,%edx
  102d14:	09 d0                	or     %edx,%eax
  102d16:	88 03                	mov    %al,(%ebx)
  102d18:	81 c7 00 10 00 00    	add    $0x1000,%edi
  102d1e:	8b 45 e4             	mov    -0x1c(%ebp),%eax
  102d21:	39 c7                	cmp    %eax,%edi
  102d23:	73 2f                	jae    102d54 <vm_map+0xdb>
  102d25:	83 ec 04             	sub    $0x4,%esp
  102d28:	56                   	push   %esi
  102d29:	57                   	push   %edi
  102d2a:	ff 75 08             	push   0x8(%ebp)
  102d2d:	e8 56 fe ff ff       	call   102b88 <vm_walkpte>
  102d32:	89 c3                	mov    %eax,%ebx
  102d34:	83 c4 10             	add    $0x10,%esp
  102d37:	f6 00 01             	testb  $0x1,(%eax)
  102d3a:	75 c7                	jne    102d03 <vm_map+0x8a>
  102d3c:	e8 c3 fc ff ff       	call   102a04 <kalloc>
  102d41:	25 00 f0 ff ff       	and    $0xfffff000,%eax
  102d46:	09 f0                	or     %esi,%eax
  102d48:	83 c8 01             	or     $0x1,%eax
  102d4b:	89 03                	mov    %eax,(%ebx)
  102d4d:	d0 e8                	shr    %al
  102d4f:	83 e0 01             	and    $0x1,%eax
  102d52:	eb b8                	jmp    102d0c <vm_map+0x93>
  102d54:	8d 65 f4             	lea    -0xc(%ebp),%esp
  102d57:	5b                   	pop    %ebx
  102d58:	5e                   	pop    %esi
  102d59:	5f                   	pop    %edi
  102d5a:	5d                   	pop    %ebp
  102d5b:	c3                   	ret    

00102d5c <vm_unmap>:
  102d5c:	55                   	push   %ebp
  102d5d:	89 e5                	mov    %esp,%ebp
  102d5f:	57                   	push   %edi
  102d60:	56                   	push   %esi
  102d61:	53                   	push   %ebx
  102d62:	83 ec 0c             	sub    $0xc,%esp
  102d65:	8b 45 0c             	mov    0xc(%ebp),%eax
  102d68:	89 c6                	mov    %eax,%esi
  102d6a:	81 e6 00 f0 ff ff    	and    $0xfffff000,%esi
  102d70:	8b 55 10             	mov    0x10(%ebp),%edx
  102d73:	8d bc 10 ff 0f 00 00 	lea    0xfff(%eax,%edx,1),%edi
  102d7a:	81 e7 00 f0 ff ff    	and    $0xfffff000,%edi
  102d80:	39 f7                	cmp    %esi,%edi
  102d82:	72 0c                	jb     102d90 <vm_unmap+0x34>
  102d84:	39 fe                	cmp    %edi,%esi
  102d86:	72 29                	jb     102db1 <vm_unmap+0x55>
  102d88:	8d 65 f4             	lea    -0xc(%ebp),%esp
  102d8b:	5b                   	pop    %ebx
  102d8c:	5e                   	pop    %esi
  102d8d:	5f                   	pop    %edi
  102d8e:	5d                   	pop    %ebp
  102d8f:	c3                   	ret    
  102d90:	83 ec 04             	sub    $0x4,%esp
  102d93:	68 d0 51 10 00       	push   $0x1051d0
  102d98:	68 d4 00 00 00       	push   $0xd4
  102d9d:	68 93 51 10 00       	push   $0x105193
  102da2:	e8 11 0d 00 00       	call   103ab8 <abort>
  102da7:	81 c6 00 10 00 00    	add    $0x1000,%esi
  102dad:	39 fe                	cmp    %edi,%esi
  102daf:	73 d7                	jae    102d88 <vm_unmap+0x2c>
  102db1:	83 ec 04             	sub    $0x4,%esp
  102db4:	6a 00                	push   $0x0
  102db6:	56                   	push   %esi
  102db7:	ff 75 08             	push   0x8(%ebp)
  102dba:	e8 c9 fd ff ff       	call   102b88 <vm_walkpte>
  102dbf:	89 c3                	mov    %eax,%ebx
  102dc1:	83 c4 10             	add    $0x10,%esp
  102dc4:	85 c0                	test   %eax,%eax
  102dc6:	74 df                	je     102da7 <vm_unmap+0x4b>
  102dc8:	f6 00 01             	testb  $0x1,(%eax)
  102dcb:	74 da                	je     102da7 <vm_unmap+0x4b>
  102dcd:	83 ec 0c             	sub    $0xc,%esp
  102dd0:	8b 00                	mov    (%eax),%eax
  102dd2:	25 00 f0 ff ff       	and    $0xfffff000,%eax
  102dd7:	50                   	push   %eax
  102dd8:	e8 69 fc ff ff       	call   102a46 <kfree>
  102ddd:	c7 03 00 00 00 00    	movl   $0x0,(%ebx)
  102de3:	83 c4 10             	add    $0x10,%esp
  102de6:	eb bf                	jmp    102da7 <vm_unmap+0x4b>

00102de8 <vm_copycurr>:
  102de8:	55                   	push   %ebp
  102de9:	89 e5                	mov    %esp,%ebp
  102deb:	57                   	push   %edi
  102dec:	56                   	push   %esi
  102ded:	53                   	push   %ebx
  102dee:	83 ec 0c             	sub    $0xc,%esp
  102df1:	8b 7d 08             	mov    0x8(%ebp),%edi
  102df4:	bb 00 00 00 08       	mov    $0x8000000,%ebx
  102df9:	eb 0e                	jmp    102e09 <vm_copycurr+0x21>
  102dfb:	81 c3 00 10 00 00    	add    $0x1000,%ebx
  102e01:	81 fb 00 00 00 c0    	cmp    $0xc0000000,%ebx
  102e07:	74 54                	je     102e5d <vm_copycurr+0x75>
  102e09:	e8 64 fd ff ff       	call   102b72 <vm_curr>
  102e0e:	83 ec 04             	sub    $0x4,%esp
  102e11:	6a 00                	push   $0x0
  102e13:	53                   	push   %ebx
  102e14:	50                   	push   %eax
  102e15:	e8 6e fd ff ff       	call   102b88 <vm_walkpte>
  102e1a:	89 c6                	mov    %eax,%esi
  102e1c:	83 c4 10             	add    $0x10,%esp
  102e1f:	85 c0                	test   %eax,%eax
  102e21:	74 d8                	je     102dfb <vm_copycurr+0x13>
  102e23:	f6 00 01             	testb  $0x1,(%eax)
  102e26:	74 d3                	je     102dfb <vm_copycurr+0x13>
  102e28:	83 ec 04             	sub    $0x4,%esp
  102e2b:	6a 07                	push   $0x7
  102e2d:	53                   	push   %ebx
  102e2e:	57                   	push   %edi
  102e2f:	e8 54 fd ff ff       	call   102b88 <vm_walkpte>
  102e34:	8b 16                	mov    (%esi),%edx
  102e36:	89 10                	mov    %edx,(%eax)
  102e38:	8b 16                	mov    (%esi),%edx
  102e3a:	c1 ea 0c             	shr    $0xc,%edx
  102e3d:	ff 04 95 00 e0 13 00 	incl   0x13e000(,%edx,4)
  102e44:	80 26 fd             	andb   $0xfd,(%esi)
  102e47:	80 20 fd             	andb   $0xfd,(%eax)
  102e4a:	83 c4 10             	add    $0x10,%esp
  102e4d:	eb ac                	jmp    102dfb <vm_copycurr+0x13>
  102e4f:	81 c3 00 10 00 00    	add    $0x1000,%ebx
  102e55:	81 fb 00 00 00 f0    	cmp    $0xf0000000,%ebx
  102e5b:	74 40                	je     102e9d <vm_copycurr+0xb5>
  102e5d:	e8 10 fd ff ff       	call   102b72 <vm_curr>
  102e62:	83 ec 04             	sub    $0x4,%esp
  102e65:	6a 00                	push   $0x0
  102e67:	53                   	push   %ebx
  102e68:	50                   	push   %eax
  102e69:	e8 1a fd ff ff       	call   102b88 <vm_walkpte>
  102e6e:	89 c6                	mov    %eax,%esi
  102e70:	83 c4 10             	add    $0x10,%esp
  102e73:	85 c0                	test   %eax,%eax
  102e75:	74 d8                	je     102e4f <vm_copycurr+0x67>
  102e77:	f6 00 01             	testb  $0x1,(%eax)
  102e7a:	74 d3                	je     102e4f <vm_copycurr+0x67>
  102e7c:	83 ec 04             	sub    $0x4,%esp
  102e7f:	6a 07                	push   $0x7
  102e81:	53                   	push   %ebx
  102e82:	57                   	push   %edi
  102e83:	e8 00 fd ff ff       	call   102b88 <vm_walkpte>
  102e88:	8b 16                	mov    (%esi),%edx
  102e8a:	89 10                	mov    %edx,(%eax)
  102e8c:	8b 06                	mov    (%esi),%eax
  102e8e:	c1 e8 0c             	shr    $0xc,%eax
  102e91:	ff 04 85 00 e0 13 00 	incl   0x13e000(,%eax,4)
  102e98:	83 c4 10             	add    $0x10,%esp
  102e9b:	eb b2                	jmp    102e4f <vm_copycurr+0x67>
  102e9d:	8d 65 f4             	lea    -0xc(%ebp),%esp
  102ea0:	5b                   	pop    %ebx
  102ea1:	5e                   	pop    %esi
  102ea2:	5f                   	pop    %edi
  102ea3:	5d                   	pop    %ebp
  102ea4:	c3                   	ret    

00102ea5 <vm_pgfault>:
  102ea5:	55                   	push   %ebp
  102ea6:	89 e5                	mov    %esp,%ebp
  102ea8:	57                   	push   %edi
  102ea9:	56                   	push   %esi
  102eaa:	53                   	push   %ebx
  102eab:	83 ec 1c             	sub    $0x1c,%esp
  102eae:	8b 5d 08             	mov    0x8(%ebp),%ebx
  102eb1:	f6 45 0c 02          	testb  $0x2,0xc(%ebp)
  102eb5:	0f 84 a5 00 00 00    	je     102f60 <vm_pgfault+0xbb>
  102ebb:	e8 b2 fc ff ff       	call   102b72 <vm_curr>
  102ec0:	89 c6                	mov    %eax,%esi
  102ec2:	83 ec 04             	sub    $0x4,%esp
  102ec5:	6a 00                	push   $0x0
  102ec7:	53                   	push   %ebx
  102ec8:	50                   	push   %eax
  102ec9:	e8 ba fc ff ff       	call   102b88 <vm_walkpte>
  102ece:	89 c7                	mov    %eax,%edi
  102ed0:	83 c4 10             	add    $0x10,%esp
  102ed3:	80 38 00             	cmpb   $0x0,(%eax)
  102ed6:	0f 89 84 00 00 00    	jns    102f60 <vm_pgfault+0xbb>
  102edc:	81 e3 00 f0 ff ff    	and    $0xfffff000,%ebx
  102ee2:	83 ec 04             	sub    $0x4,%esp
  102ee5:	6a 07                	push   $0x7
  102ee7:	53                   	push   %ebx
  102ee8:	56                   	push   %esi
  102ee9:	e8 39 fd ff ff       	call   102c27 <vm_walk>
  102eee:	89 45 e4             	mov    %eax,-0x1c(%ebp)
  102ef1:	c1 e8 0c             	shr    $0xc,%eax
  102ef4:	83 c4 10             	add    $0x10,%esp
  102ef7:	83 3c 85 00 e0 13 00 	cmpl   $0x1,0x13e000(,%eax,4)
  102efe:	01 
  102eff:	75 20                	jne    102f21 <vm_pgfault+0x7c>
  102f01:	8a 17                	mov    (%edi),%dl
  102f03:	c0 ea 07             	shr    $0x7,%dl
  102f06:	d1 e2                	shl    %edx
  102f08:	8a 07                	mov    (%edi),%al
  102f0a:	83 e0 fd             	and    $0xfffffffd,%eax
  102f0d:	09 d0                	or     %edx,%eax
  102f0f:	88 07                	mov    %al,(%edi)
  102f11:	e8 5c fc ff ff       	call   102b72 <vm_curr>
  102f16:	0f 22 d8             	mov    %eax,%cr3
  102f19:	8d 65 f4             	lea    -0xc(%ebp),%esp
  102f1c:	5b                   	pop    %ebx
  102f1d:	5e                   	pop    %esi
  102f1e:	5f                   	pop    %edi
  102f1f:	5d                   	pop    %ebp
  102f20:	c3                   	ret    
  102f21:	83 ec 04             	sub    $0x4,%esp
  102f24:	68 00 10 00 00       	push   $0x1000
  102f29:	53                   	push   %ebx
  102f2a:	56                   	push   %esi
  102f2b:	e8 2c fe ff ff       	call   102d5c <vm_unmap>
  102f30:	6a 07                	push   $0x7
  102f32:	68 00 10 00 00       	push   $0x1000
  102f37:	53                   	push   %ebx
  102f38:	56                   	push   %esi
  102f39:	e8 3b fd ff ff       	call   102c79 <vm_map>
  102f3e:	83 c4 1c             	add    $0x1c,%esp
  102f41:	6a 07                	push   $0x7
  102f43:	53                   	push   %ebx
  102f44:	56                   	push   %esi
  102f45:	e8 dd fc ff ff       	call   102c27 <vm_walk>
  102f4a:	83 c4 0c             	add    $0xc,%esp
  102f4d:	68 00 10 00 00       	push   $0x1000
  102f52:	ff 75 e4             	push   -0x1c(%ebp)
  102f55:	50                   	push   %eax
  102f56:	e8 66 16 00 00       	call   1045c1 <memcpy>
  102f5b:	83 c4 10             	add    $0x10,%esp
  102f5e:	eb b1                	jmp    102f11 <vm_pgfault+0x6c>
  102f60:	83 ec 04             	sub    $0x4,%esp
  102f63:	ff 75 0c             	push   0xc(%ebp)
  102f66:	53                   	push   %ebx
  102f67:	68 e8 51 10 00       	push   $0x1051e8
  102f6c:	e8 2e 0b 00 00       	call   103a9f <printf>
  102f71:	83 c4 0c             	add    $0xc,%esp
  102f74:	68 dd 51 10 00       	push   $0x1051dd
  102f79:	68 1c 01 00 00       	push   $0x11c
  102f7e:	68 93 51 10 00       	push   $0x105193
  102f83:	e8 30 0b 00 00       	call   103ab8 <abort>

00102f88 <init_timer>:
  102f88:	b0 34                	mov    $0x34,%al
  102f8a:	ba 43 00 00 00       	mov    $0x43,%edx
  102f8f:	ee                   	out    %al,(%dx)
  102f90:	ba 40 00 00 00       	mov    $0x40,%edx
  102f95:	b0 9b                	mov    $0x9b,%al
  102f97:	ee                   	out    %al,(%dx)
  102f98:	b0 2e                	mov    $0x2e,%al
  102f9a:	ee                   	out    %al,(%dx)
  102f9b:	c3                   	ret    

00102f9c <timer_handle>:
  102f9c:	55                   	push   %ebp
  102f9d:	89 e5                	mov    %esp,%ebp
  102f9f:	83 ec 08             	sub    $0x8,%esp
  102fa2:	ff 05 68 e0 15 00    	incl   0x15e068
  102fa8:	e8 23 e2 ff ff       	call   1011d0 <proc_yield>
  102fad:	c9                   	leave  
  102fae:	c3                   	ret    

00102faf <get_tick>:
  102faf:	a1 68 e0 15 00       	mov    0x15e068,%eax
  102fb4:	c3                   	ret    

00102fb5 <ban_read>:
  102fb5:	b8 ff ff ff ff       	mov    $0xffffffff,%eax
  102fba:	c3                   	ret    

00102fbb <ignore_write>:
  102fbb:	55                   	push   %ebp
  102fbc:	89 e5                	mov    %esp,%ebp
  102fbe:	8b 45 0c             	mov    0xc(%ebp),%eax
  102fc1:	5d                   	pop    %ebp
  102fc2:	c3                   	ret    

00102fc3 <init_dev>:
  102fc3:	55                   	push   %ebp
  102fc4:	89 e5                	mov    %esp,%ebp
  102fc6:	83 ec 10             	sub    $0x10,%esp
  102fc9:	6a 02                	push   $0x2
  102fcb:	68 08 52 10 00       	push   $0x105208
  102fd0:	e8 56 f0 ff ff       	call   10202b <iopen>
  102fd5:	89 04 24             	mov    %eax,(%esp)
  102fd8:	e8 8f f2 ff ff       	call   10226c <iclose>
  102fdd:	83 c4 08             	add    $0x8,%esp
  102fe0:	6a 00                	push   $0x0
  102fe2:	68 60 65 10 00       	push   $0x106560
  102fe7:	e8 87 f1 ff ff       	call   102173 <iadddev>
  102fec:	83 c4 08             	add    $0x8,%esp
  102fef:	6a 01                	push   $0x1
  102ff1:	68 88 65 10 00       	push   $0x106588
  102ff6:	e8 78 f1 ff ff       	call   102173 <iadddev>
  102ffb:	83 c4 10             	add    $0x10,%esp
  102ffe:	c9                   	leave  
  102fff:	c3                   	ret    

00103000 <dev_get>:
  103000:	55                   	push   %ebp
  103001:	89 e5                	mov    %esp,%ebp
  103003:	8b 45 08             	mov    0x8(%ebp),%eax
  103006:	83 f8 01             	cmp    $0x1,%eax
  103009:	77 0c                	ja     103017 <dev_get+0x17>
  10300b:	8d 04 80             	lea    (%eax,%eax,4),%eax
  10300e:	8d 04 c5 80 65 10 00 	lea    0x106580(,%eax,8),%eax
  103015:	5d                   	pop    %ebp
  103016:	c3                   	ret    
  103017:	b8 00 00 00 00       	mov    $0x0,%eax
  10301c:	eb f7                	jmp    103015 <dev_get+0x15>

0010301e <fopen>:
  10301e:	55                   	push   %ebp
  10301f:	89 e5                	mov    %esp,%ebp
  103021:	83 ec 0c             	sub    $0xc,%esp
  103024:	68 00 50 10 00       	push   $0x105000
  103029:	6a 0a                	push   $0xa
  10302b:	68 0d 52 10 00       	push   $0x10520d
  103030:	e8 83 0a 00 00       	call   103ab8 <abort>

00103035 <fread>:
  103035:	55                   	push   %ebp
  103036:	89 e5                	mov    %esp,%ebp
  103038:	83 ec 08             	sub    $0x8,%esp
  10303b:	8b 45 08             	mov    0x8(%ebp),%eax
  10303e:	83 78 08 00          	cmpl   $0x0,0x8(%eax)
  103042:	75 07                	jne    10304b <fread+0x16>
  103044:	b8 ff ff ff ff       	mov    $0xffffffff,%eax
  103049:	c9                   	leave  
  10304a:	c3                   	ret    
  10304b:	83 ec 04             	sub    $0x4,%esp
  10304e:	68 00 50 10 00       	push   $0x105000
  103053:	6a 37                	push   $0x37
  103055:	68 0d 52 10 00       	push   $0x10520d
  10305a:	e8 59 0a 00 00       	call   103ab8 <abort>

0010305f <fwrite>:
  10305f:	55                   	push   %ebp
  103060:	89 e5                	mov    %esp,%ebp
  103062:	83 ec 08             	sub    $0x8,%esp
  103065:	8b 45 08             	mov    0x8(%ebp),%eax
  103068:	83 78 0c 00          	cmpl   $0x0,0xc(%eax)
  10306c:	75 07                	jne    103075 <fwrite+0x16>
  10306e:	b8 ff ff ff ff       	mov    $0xffffffff,%eax
  103073:	c9                   	leave  
  103074:	c3                   	ret    
  103075:	83 ec 04             	sub    $0x4,%esp
  103078:	68 00 50 10 00       	push   $0x105000
  10307d:	6a 3e                	push   $0x3e
  10307f:	68 0d 52 10 00       	push   $0x10520d
  103084:	e8 2f 0a 00 00       	call   103ab8 <abort>

00103089 <fseek>:
  103089:	55                   	push   %ebp
  10308a:	89 e5                	mov    %esp,%ebp
  10308c:	83 ec 08             	sub    $0x8,%esp
  10308f:	8b 45 08             	mov    0x8(%ebp),%eax
  103092:	83 38 01             	cmpl   $0x1,(%eax)
  103095:	74 07                	je     10309e <fseek+0x15>
  103097:	b8 ff ff ff ff       	mov    $0xffffffff,%eax
  10309c:	c9                   	leave  
  10309d:	c3                   	ret    
  10309e:	83 ec 04             	sub    $0x4,%esp
  1030a1:	68 00 50 10 00       	push   $0x105000
  1030a6:	6a 44                	push   $0x44
  1030a8:	68 0d 52 10 00       	push   $0x10520d
  1030ad:	e8 06 0a 00 00       	call   103ab8 <abort>

001030b2 <fdup>:
  1030b2:	55                   	push   %ebp
  1030b3:	89 e5                	mov    %esp,%ebp
  1030b5:	83 ec 0c             	sub    $0xc,%esp
  1030b8:	68 00 50 10 00       	push   $0x105000
  1030bd:	6a 4b                	push   $0x4b
  1030bf:	68 0d 52 10 00       	push   $0x10520d
  1030c4:	e8 ef 09 00 00       	call   103ab8 <abort>

001030c9 <fclose>:
  1030c9:	55                   	push   %ebp
  1030ca:	89 e5                	mov    %esp,%ebp
  1030cc:	83 ec 0c             	sub    $0xc,%esp
  1030cf:	68 00 50 10 00       	push   $0x105000
  1030d4:	6a 50                	push   $0x50
  1030d6:	68 0d 52 10 00       	push   $0x10520d
  1030db:	e8 d8 09 00 00       	call   103ab8 <abort>

001030e0 <sys_munmap>:
  1030e0:	c3                   	ret    

001030e1 <sys_write>:
  1030e1:	55                   	push   %ebp
  1030e2:	89 e5                	mov    %esp,%ebp
  1030e4:	83 ec 10             	sub    $0x10,%esp
  1030e7:	ff 75 10             	push   0x10(%ebp)
  1030ea:	ff 75 0c             	push   0xc(%ebp)
  1030ed:	e8 8b ed ff ff       	call   101e7d <serial_write>
  1030f2:	c9                   	leave  
  1030f3:	c3                   	ret    

001030f4 <sys_read>:
  1030f4:	55                   	push   %ebp
  1030f5:	89 e5                	mov    %esp,%ebp
  1030f7:	83 ec 10             	sub    $0x10,%esp
  1030fa:	ff 75 10             	push   0x10(%ebp)
  1030fd:	ff 75 0c             	push   0xc(%ebp)
  103100:	e8 8e ed ff ff       	call   101e93 <serial_read>
  103105:	c9                   	leave  
  103106:	c3                   	ret    

00103107 <sys_getpid>:
  103107:	55                   	push   %ebp
  103108:	89 e5                	mov    %esp,%ebp
  10310a:	83 ec 08             	sub    $0x8,%esp
  10310d:	e8 71 e0 ff ff       	call   101183 <proc_curr>
  103112:	8b 80 b4 00 00 00    	mov    0xb4(%eax),%eax
  103118:	c9                   	leave  
  103119:	c3                   	ret    

0010311a <sys_gettid>:
  10311a:	55                   	push   %ebp
  10311b:	89 e5                	mov    %esp,%ebp
  10311d:	83 ec 08             	sub    $0x8,%esp
  103120:	e8 5e e0 ff ff       	call   101183 <proc_curr>
  103125:	8b 00                	mov    (%eax),%eax
  103127:	c9                   	leave  
  103128:	c3                   	ret    

00103129 <sys_brk>:
  103129:	55                   	push   %ebp
  10312a:	89 e5                	mov    %esp,%ebp
  10312c:	57                   	push   %edi
  10312d:	56                   	push   %esi
  10312e:	53                   	push   %ebx
  10312f:	83 ec 0c             	sub    $0xc,%esp
  103132:	e8 4c e0 ff ff       	call   101183 <proc_curr>
  103137:	8b b8 bc 00 00 00    	mov    0xbc(%eax),%edi
  10313d:	8b 77 14             	mov    0x14(%edi),%esi
  103140:	8b 45 08             	mov    0x8(%ebp),%eax
  103143:	8d 98 ff 0f 00 00    	lea    0xfff(%eax),%ebx
  103149:	81 e3 00 f0 ff ff    	and    $0xfffff000,%ebx
  10314f:	85 f6                	test   %esi,%esi
  103151:	75 10                	jne    103163 <sys_brk+0x3a>
  103153:	89 5f 14             	mov    %ebx,0x14(%edi)
  103156:	b8 00 00 00 00       	mov    $0x0,%eax
  10315b:	8d 65 f4             	lea    -0xc(%ebp),%esp
  10315e:	5b                   	pop    %ebx
  10315f:	5e                   	pop    %esi
  103160:	5f                   	pop    %edi
  103161:	5d                   	pop    %ebp
  103162:	c3                   	ret    
  103163:	39 de                	cmp    %ebx,%esi
  103165:	73 ef                	jae    103156 <sys_brk+0x2d>
  103167:	e8 06 fa ff ff       	call   102b72 <vm_curr>
  10316c:	6a 07                	push   $0x7
  10316e:	29 f3                	sub    %esi,%ebx
  103170:	53                   	push   %ebx
  103171:	56                   	push   %esi
  103172:	50                   	push   %eax
  103173:	e8 01 fb ff ff       	call   102c79 <vm_map>
  103178:	89 77 14             	mov    %esi,0x14(%edi)
  10317b:	83 c4 10             	add    $0x10,%esp
  10317e:	eb d6                	jmp    103156 <sys_brk+0x2d>

00103180 <sys_sleep>:
  103180:	55                   	push   %ebp
  103181:	89 e5                	mov    %esp,%ebp
  103183:	56                   	push   %esi
  103184:	53                   	push   %ebx
  103185:	8b 75 08             	mov    0x8(%ebp),%esi
  103188:	e8 22 fe ff ff       	call   102faf <get_tick>
  10318d:	89 c3                	mov    %eax,%ebx
  10318f:	eb 05                	jmp    103196 <sys_sleep+0x16>
  103191:	e8 3a e0 ff ff       	call   1011d0 <proc_yield>
  103196:	e8 14 fe ff ff       	call   102faf <get_tick>
  10319b:	29 d8                	sub    %ebx,%eax
  10319d:	39 c6                	cmp    %eax,%esi
  10319f:	73 f0                	jae    103191 <sys_sleep+0x11>
  1031a1:	5b                   	pop    %ebx
  1031a2:	5e                   	pop    %esi
  1031a3:	5d                   	pop    %ebp
  1031a4:	c3                   	ret    

001031a5 <sys_yield>:
  1031a5:	55                   	push   %ebp
  1031a6:	89 e5                	mov    %esp,%ebp
  1031a8:	83 ec 08             	sub    $0x8,%esp
  1031ab:	e8 20 e0 ff ff       	call   1011d0 <proc_yield>
  1031b0:	c9                   	leave  
  1031b1:	c3                   	ret    

001031b2 <sys_exec>:
  1031b2:	55                   	push   %ebp
  1031b3:	89 e5                	mov    %esp,%ebp
  1031b5:	57                   	push   %edi
  1031b6:	56                   	push   %esi
  1031b7:	53                   	push   %ebx
  1031b8:	83 ec 1c             	sub    $0x1c,%esp
  1031bb:	e8 c3 df ff ff       	call   101183 <proc_curr>
  1031c0:	89 c6                	mov    %eax,%esi
  1031c2:	e8 f5 f8 ff ff       	call   102abc <vm_alloc>
  1031c7:	89 45 e4             	mov    %eax,-0x1c(%ebp)
  1031ca:	ff 75 0c             	push   0xc(%ebp)
  1031cd:	ff 75 08             	push   0x8(%ebp)
  1031d0:	ff 76 0c             	push   0xc(%esi)
  1031d3:	50                   	push   %eax
  1031d4:	e8 bc f2 ff ff       	call   102495 <load_user>
  1031d9:	83 c4 10             	add    $0x10,%esp
  1031dc:	85 c0                	test   %eax,%eax
  1031de:	0f 85 f8 00 00 00    	jne    1032dc <sys_exec+0x12a>
  1031e4:	8b be bc 00 00 00    	mov    0xbc(%esi),%edi
  1031ea:	39 fe                	cmp    %edi,%esi
  1031ec:	74 1c                	je     10320a <sys_exec+0x58>
  1031ee:	ff 75 e4             	push   -0x1c(%ebp)
  1031f1:	ff 76 10             	push   0x10(%esi)
  1031f4:	56                   	push   %esi
  1031f5:	68 2f 52 10 00       	push   $0x10522f
  1031fa:	e8 a0 08 00 00       	call   103a9f <printf>
  1031ff:	83 c4 10             	add    $0x10,%esp
  103202:	85 ff                	test   %edi,%edi
  103204:	74 6a                	je     103270 <sys_exec+0xbe>
  103206:	89 fb                	mov    %edi,%ebx
  103208:	eb 54                	jmp    10325e <sys_exec+0xac>
  10320a:	ff 75 e4             	push   -0x1c(%ebp)
  10320d:	ff 77 10             	push   0x10(%edi)
  103210:	57                   	push   %edi
  103211:	68 1f 52 10 00       	push   $0x10521f
  103216:	e8 84 08 00 00       	call   103a9f <printf>
  10321b:	8b 9f c0 00 00 00    	mov    0xc0(%edi),%ebx
  103221:	83 c4 10             	add    $0x10,%esp
  103224:	85 db                	test   %ebx,%ebx
  103226:	74 16                	je     10323e <sys_exec+0x8c>
  103228:	83 ec 0c             	sub    $0xc,%esp
  10322b:	53                   	push   %ebx
  10322c:	e8 dc e1 ff ff       	call   10140d <thread_free>
  103231:	8b 9b c0 00 00 00    	mov    0xc0(%ebx),%ebx
  103237:	83 c4 10             	add    $0x10,%esp
  10323a:	85 db                	test   %ebx,%ebx
  10323c:	75 ea                	jne    103228 <sys_exec+0x76>
  10323e:	c7 87 c0 00 00 00 00 	movl   $0x0,0xc0(%edi)
  103245:	00 00 00 
  103248:	c7 87 b8 00 00 00 01 	movl   $0x1,0xb8(%edi)
  10324f:	00 00 00 
  103252:	eb 5a                	jmp    1032ae <sys_exec+0xfc>
  103254:	8b 9b c0 00 00 00    	mov    0xc0(%ebx),%ebx
  10325a:	85 db                	test   %ebx,%ebx
  10325c:	74 12                	je     103270 <sys_exec+0xbe>
  10325e:	39 de                	cmp    %ebx,%esi
  103260:	74 f2                	je     103254 <sys_exec+0xa2>
  103262:	83 ec 0c             	sub    $0xc,%esp
  103265:	53                   	push   %ebx
  103266:	e8 a2 e1 ff ff       	call   10140d <thread_free>
  10326b:	83 c4 10             	add    $0x10,%esp
  10326e:	eb e4                	jmp    103254 <sys_exec+0xa2>
  103270:	8b 46 10             	mov    0x10(%esi),%eax
  103273:	89 47 10             	mov    %eax,0x10(%edi)
  103276:	8b 46 08             	mov    0x8(%esi),%eax
  103279:	89 47 08             	mov    %eax,0x8(%edi)
  10327c:	8b 46 0c             	mov    0xc(%esi),%eax
  10327f:	89 47 0c             	mov    %eax,0xc(%edi)
  103282:	83 ec 04             	sub    $0x4,%esp
  103285:	68 c4 00 00 00       	push   $0xc4
  10328a:	57                   	push   %edi
  10328b:	56                   	push   %esi
  10328c:	e8 30 13 00 00       	call   1045c1 <memcpy>
  103291:	c7 86 c0 00 00 00 00 	movl   $0x0,0xc0(%esi)
  103298:	00 00 00 
  10329b:	c7 86 b8 00 00 00 01 	movl   $0x1,0xb8(%esi)
  1032a2:	00 00 00 
  1032a5:	89 b6 bc 00 00 00    	mov    %esi,0xbc(%esi)
  1032ab:	83 c4 10             	add    $0x10,%esp
  1032ae:	8b 7d e4             	mov    -0x1c(%ebp),%edi
  1032b1:	57                   	push   %edi
  1032b2:	ff 76 10             	push   0x10(%esi)
  1032b5:	56                   	push   %esi
  1032b6:	68 20 52 10 00       	push   $0x105220
  1032bb:	e8 df 07 00 00       	call   103a9f <printf>
  1032c0:	89 7e 10             	mov    %edi,0x10(%esi)
  1032c3:	89 34 24             	mov    %esi,(%esp)
  1032c6:	e8 be de ff ff       	call   101189 <proc_run>
  1032cb:	c7 04 24 78 52 10 00 	movl   $0x105278,(%esp)
  1032d2:	e8 c8 07 00 00       	call   103a9f <printf>
  1032d7:	83 c4 10             	add    $0x10,%esp
  1032da:	eb fe                	jmp    1032da <sys_exec+0x128>
  1032dc:	b8 ff ff ff ff       	mov    $0xffffffff,%eax
  1032e1:	8d 65 f4             	lea    -0xc(%ebp),%esp
  1032e4:	5b                   	pop    %ebx
  1032e5:	5e                   	pop    %esi
  1032e6:	5f                   	pop    %edi
  1032e7:	5d                   	pop    %ebp
  1032e8:	c3                   	ret    

001032e9 <sys_fork>:
  1032e9:	55                   	push   %ebp
  1032ea:	89 e5                	mov    %esp,%ebp
  1032ec:	53                   	push   %ebx
  1032ed:	83 ec 04             	sub    $0x4,%esp
  1032f0:	e8 a3 dd ff ff       	call   101098 <proc_alloc>
  1032f5:	85 c0                	test   %eax,%eax
  1032f7:	74 1d                	je     103316 <sys_fork+0x2d>
  1032f9:	89 c3                	mov    %eax,%ebx
  1032fb:	83 ec 0c             	sub    $0xc,%esp
  1032fe:	50                   	push   %eax
  1032ff:	e8 db de ff ff       	call   1011df <proc_copycurr>
  103304:	89 1c 24             	mov    %ebx,(%esp)
  103307:	e8 b5 de ff ff       	call   1011c1 <proc_addready>
  10330c:	8b 03                	mov    (%ebx),%eax
  10330e:	83 c4 10             	add    $0x10,%esp
  103311:	8b 5d fc             	mov    -0x4(%ebp),%ebx
  103314:	c9                   	leave  
  103315:	c3                   	ret    
  103316:	b8 ff ff ff ff       	mov    $0xffffffff,%eax
  10331b:	eb f4                	jmp    103311 <sys_fork+0x28>

0010331d <sys_clone>:
  10331d:	55                   	push   %ebp
  10331e:	89 e5                	mov    %esp,%ebp
  103320:	56                   	push   %esi
  103321:	53                   	push   %ebx
  103322:	8b 75 0c             	mov    0xc(%ebp),%esi
  103325:	e8 6e dd ff ff       	call   101098 <proc_alloc>
  10332a:	85 c0                	test   %eax,%eax
  10332c:	0f 84 97 00 00 00    	je     1033c9 <sys_clone+0xac>
  103332:	89 c3                	mov    %eax,%ebx
  103334:	e8 4a de ff ff       	call   101183 <proc_curr>
  103339:	8b 90 bc 00 00 00    	mov    0xbc(%eax),%edx
  10333f:	8b 48 10             	mov    0x10(%eax),%ecx
  103342:	89 4b 10             	mov    %ecx,0x10(%ebx)
  103345:	8b 80 b4 00 00 00    	mov    0xb4(%eax),%eax
  10334b:	89 83 b4 00 00 00    	mov    %eax,0xb4(%ebx)
  103351:	89 93 bc 00 00 00    	mov    %edx,0xbc(%ebx)
  103357:	8b 45 10             	mov    0x10(%ebp),%eax
  10335a:	89 46 fc             	mov    %eax,-0x4(%esi)
  10335d:	8b 45 14             	mov    0x14(%ebp),%eax
  103360:	89 46 f8             	mov    %eax,-0x8(%esi)
  103363:	8b 82 c0 00 00 00    	mov    0xc0(%edx),%eax
  103369:	89 83 c0 00 00 00    	mov    %eax,0xc0(%ebx)
  10336f:	89 9a c0 00 00 00    	mov    %ebx,0xc0(%edx)
  103375:	ff 82 b8 00 00 00    	incl   0xb8(%edx)
  10337b:	8b 43 0c             	mov    0xc(%ebx),%eax
  10337e:	8b 55 08             	mov    0x8(%ebp),%edx
  103381:	89 50 28             	mov    %edx,0x28(%eax)
  103384:	8b 43 0c             	mov    0xc(%ebx),%eax
  103387:	c7 40 2c 1b 00 00 00 	movl   $0x1b,0x2c(%eax)
  10338e:	8b 43 0c             	mov    0xc(%ebx),%eax
  103391:	c7 00 23 00 00 00    	movl   $0x23,(%eax)
  103397:	8b 43 0c             	mov    0xc(%ebx),%eax
  10339a:	c7 40 38 23 00 00 00 	movl   $0x23,0x38(%eax)
  1033a1:	8b 43 0c             	mov    0xc(%ebx),%eax
  1033a4:	83 ee 08             	sub    $0x8,%esi
  1033a7:	89 70 34             	mov    %esi,0x34(%eax)
  1033aa:	8b 43 0c             	mov    0xc(%ebx),%eax
  1033ad:	c7 40 30 02 02 00 00 	movl   $0x202,0x30(%eax)
  1033b4:	83 ec 0c             	sub    $0xc,%esp
  1033b7:	53                   	push   %ebx
  1033b8:	e8 04 de ff ff       	call   1011c1 <proc_addready>
  1033bd:	8b 03                	mov    (%ebx),%eax
  1033bf:	83 c4 10             	add    $0x10,%esp
  1033c2:	8d 65 f8             	lea    -0x8(%ebp),%esp
  1033c5:	5b                   	pop    %ebx
  1033c6:	5e                   	pop    %esi
  1033c7:	5d                   	pop    %ebp
  1033c8:	c3                   	ret    
  1033c9:	b8 ff ff ff ff       	mov    $0xffffffff,%eax
  1033ce:	eb f2                	jmp    1033c2 <sys_clone+0xa5>

001033d0 <sys_exit_group>:
  1033d0:	55                   	push   %ebp
  1033d1:	89 e5                	mov    %esp,%ebp
  1033d3:	56                   	push   %esi
  1033d4:	53                   	push   %ebx
  1033d5:	e8 a9 dd ff ff       	call   101183 <proc_curr>
  1033da:	8b b0 bc 00 00 00    	mov    0xbc(%eax),%esi
  1033e0:	8b 9e c0 00 00 00    	mov    0xc0(%esi),%ebx
  1033e6:	85 db                	test   %ebx,%ebx
  1033e8:	74 16                	je     103400 <sys_exit_group+0x30>
  1033ea:	83 ec 0c             	sub    $0xc,%esp
  1033ed:	53                   	push   %ebx
  1033ee:	e8 1a e0 ff ff       	call   10140d <thread_free>
  1033f3:	8b 9b c0 00 00 00    	mov    0xc0(%ebx),%ebx
  1033f9:	83 c4 10             	add    $0x10,%esp
  1033fc:	85 db                	test   %ebx,%ebx
  1033fe:	75 ea                	jne    1033ea <sys_exit_group+0x1a>
  103400:	83 ec 08             	sub    $0x8,%esp
  103403:	ff 75 08             	push   0x8(%ebp)
  103406:	56                   	push   %esi
  103407:	e8 55 de ff ff       	call   101261 <proc_makezombie>
  10340c:	cd 81                	int    $0x81
  10340e:	83 c4 0c             	add    $0xc,%esp
  103411:	68 b3 51 10 00       	push   $0x1051b3
  103416:	68 9b 00 00 00       	push   $0x9b
  10341b:	68 3f 52 10 00       	push   $0x10523f
  103420:	e8 93 06 00 00       	call   103ab8 <abort>

00103425 <sys_exit>:
  103425:	55                   	push   %ebp
  103426:	89 e5                	mov    %esp,%ebp
  103428:	57                   	push   %edi
  103429:	56                   	push   %esi
  10342a:	53                   	push   %ebx
  10342b:	83 ec 0c             	sub    $0xc,%esp
  10342e:	8b 7d 08             	mov    0x8(%ebp),%edi
  103431:	e8 4d dd ff ff       	call   101183 <proc_curr>
  103436:	8b 98 bc 00 00 00    	mov    0xbc(%eax),%ebx
  10343c:	e8 42 dd ff ff       	call   101183 <proc_curr>
  103441:	39 c3                	cmp    %eax,%ebx
  103443:	75 70                	jne    1034b5 <sys_exit+0x90>
  103445:	89 c6                	mov    %eax,%esi
  103447:	83 b8 b8 00 00 00 01 	cmpl   $0x1,0xb8(%eax)
  10344e:	7e 0e                	jle    10345e <sys_exit+0x39>
  103450:	e8 7b dd ff ff       	call   1011d0 <proc_yield>
  103455:	83 be b8 00 00 00 01 	cmpl   $0x1,0xb8(%esi)
  10345c:	7f f2                	jg     103450 <sys_exit+0x2b>
  10345e:	8b 9e c0 00 00 00    	mov    0xc0(%esi),%ebx
  103464:	85 db                	test   %ebx,%ebx
  103466:	74 16                	je     10347e <sys_exit+0x59>
  103468:	83 ec 0c             	sub    $0xc,%esp
  10346b:	53                   	push   %ebx
  10346c:	e8 9c df ff ff       	call   10140d <thread_free>
  103471:	8b 9b c0 00 00 00    	mov    0xc0(%ebx),%ebx
  103477:	83 c4 10             	add    $0x10,%esp
  10347a:	85 db                	test   %ebx,%ebx
  10347c:	75 ea                	jne    103468 <sys_exit+0x43>
  10347e:	83 ec 08             	sub    $0x8,%esp
  103481:	57                   	push   %edi
  103482:	56                   	push   %esi
  103483:	e8 d9 dd ff ff       	call   101261 <proc_makezombie>
  103488:	cd 81                	int    $0x81
  10348a:	83 c4 10             	add    $0x10,%esp
  10348d:	83 be b8 00 00 00 01 	cmpl   $0x1,0xb8(%esi)
  103494:	7e 08                	jle    10349e <sys_exit+0x79>
  103496:	8d 65 f4             	lea    -0xc(%ebp),%esp
  103499:	5b                   	pop    %ebx
  10349a:	5e                   	pop    %esi
  10349b:	5f                   	pop    %edi
  10349c:	5d                   	pop    %ebp
  10349d:	c3                   	ret    
  10349e:	83 ec 04             	sub    $0x4,%esp
  1034a1:	68 54 52 10 00       	push   $0x105254
  1034a6:	68 ae 00 00 00       	push   $0xae
  1034ab:	68 3f 52 10 00       	push   $0x10523f
  1034b0:	e8 03 06 00 00       	call   103ab8 <abort>
  1034b5:	ff 8b b8 00 00 00    	decl   0xb8(%ebx)
  1034bb:	e8 c3 dc ff ff       	call   101183 <proc_curr>
  1034c0:	83 ec 08             	sub    $0x8,%esp
  1034c3:	57                   	push   %edi
  1034c4:	50                   	push   %eax
  1034c5:	e8 97 dd ff ff       	call   101261 <proc_makezombie>
  1034ca:	cd 81                	int    $0x81
  1034cc:	83 c4 0c             	add    $0xc,%esp
  1034cf:	68 b3 51 10 00       	push   $0x1051b3
  1034d4:	68 b4 00 00 00       	push   $0xb4
  1034d9:	68 3f 52 10 00       	push   $0x10523f
  1034de:	e8 d5 05 00 00       	call   103ab8 <abort>

001034e3 <sys_open>:
  1034e3:	55                   	push   %ebp
  1034e4:	89 e5                	mov    %esp,%ebp
  1034e6:	83 ec 0c             	sub    $0xc,%esp
  1034e9:	68 00 50 10 00       	push   $0x105000
  1034ee:	68 f2 00 00 00       	push   $0xf2
  1034f3:	68 3f 52 10 00       	push   $0x10523f
  1034f8:	e8 bb 05 00 00       	call   103ab8 <abort>

001034fd <sys_close>:
  1034fd:	55                   	push   %ebp
  1034fe:	89 e5                	mov    %esp,%ebp
  103500:	83 ec 0c             	sub    $0xc,%esp
  103503:	68 00 50 10 00       	push   $0x105000
  103508:	68 f6 00 00 00       	push   $0xf6
  10350d:	68 3f 52 10 00       	push   $0x10523f
  103512:	e8 a1 05 00 00       	call   103ab8 <abort>

00103517 <sys_dup>:
  103517:	55                   	push   %ebp
  103518:	89 e5                	mov    %esp,%ebp
  10351a:	83 ec 0c             	sub    $0xc,%esp
  10351d:	68 00 50 10 00       	push   $0x105000
  103522:	68 fa 00 00 00       	push   $0xfa
  103527:	68 3f 52 10 00       	push   $0x10523f
  10352c:	e8 87 05 00 00       	call   103ab8 <abort>

00103531 <sys_lseek>:
  103531:	55                   	push   %ebp
  103532:	89 e5                	mov    %esp,%ebp
  103534:	83 ec 0c             	sub    $0xc,%esp
  103537:	68 00 50 10 00       	push   $0x105000
  10353c:	68 fe 00 00 00       	push   $0xfe
  103541:	68 3f 52 10 00       	push   $0x10523f
  103546:	e8 6d 05 00 00       	call   103ab8 <abort>

0010354b <sys_fstat>:
  10354b:	55                   	push   %ebp
  10354c:	89 e5                	mov    %esp,%ebp
  10354e:	83 ec 0c             	sub    $0xc,%esp
  103551:	68 00 50 10 00       	push   $0x105000
  103556:	68 02 01 00 00       	push   $0x102
  10355b:	68 3f 52 10 00       	push   $0x10523f
  103560:	e8 53 05 00 00       	call   103ab8 <abort>

00103565 <sys_chdir>:
  103565:	55                   	push   %ebp
  103566:	89 e5                	mov    %esp,%ebp
  103568:	83 ec 0c             	sub    $0xc,%esp
  10356b:	68 00 50 10 00       	push   $0x105000
  103570:	68 06 01 00 00       	push   $0x106
  103575:	68 3f 52 10 00       	push   $0x10523f
  10357a:	e8 39 05 00 00       	call   103ab8 <abort>

0010357f <sys_join>:
  10357f:	55                   	push   %ebp
  103580:	89 e5                	mov    %esp,%ebp
  103582:	83 ec 0c             	sub    $0xc,%esp
  103585:	68 00 50 10 00       	push   $0x105000
  10358a:	68 41 01 00 00       	push   $0x141
  10358f:	68 3f 52 10 00       	push   $0x10523f
  103594:	e8 1f 05 00 00       	call   103ab8 <abort>

00103599 <sys_detach>:
  103599:	55                   	push   %ebp
  10359a:	89 e5                	mov    %esp,%ebp
  10359c:	83 ec 0c             	sub    $0xc,%esp
  10359f:	68 00 50 10 00       	push   $0x105000
  1035a4:	68 45 01 00 00       	push   $0x145
  1035a9:	68 3f 52 10 00       	push   $0x10523f
  1035ae:	e8 05 05 00 00       	call   103ab8 <abort>

001035b3 <sys_kill>:
  1035b3:	55                   	push   %ebp
  1035b4:	89 e5                	mov    %esp,%ebp
  1035b6:	83 ec 0c             	sub    $0xc,%esp
  1035b9:	68 00 50 10 00       	push   $0x105000
  1035be:	68 49 01 00 00       	push   $0x149
  1035c3:	68 3f 52 10 00       	push   $0x10523f
  1035c8:	e8 eb 04 00 00       	call   103ab8 <abort>

001035cd <sys_pipe>:
  1035cd:	55                   	push   %ebp
  1035ce:	89 e5                	mov    %esp,%ebp
  1035d0:	83 ec 0c             	sub    $0xc,%esp
  1035d3:	68 00 50 10 00       	push   $0x105000
  1035d8:	68 67 01 00 00       	push   $0x167
  1035dd:	68 3f 52 10 00       	push   $0x10523f
  1035e2:	e8 d1 04 00 00       	call   103ab8 <abort>

001035e7 <sys_mkfifo>:
  1035e7:	55                   	push   %ebp
  1035e8:	89 e5                	mov    %esp,%ebp
  1035ea:	83 ec 0c             	sub    $0xc,%esp
  1035ed:	68 00 50 10 00       	push   $0x105000
  1035f2:	68 6b 01 00 00       	push   $0x16b
  1035f7:	68 3f 52 10 00       	push   $0x10523f
  1035fc:	e8 b7 04 00 00       	call   103ab8 <abort>

00103601 <sys_link>:
  103601:	55                   	push   %ebp
  103602:	89 e5                	mov    %esp,%ebp
  103604:	83 ec 0c             	sub    $0xc,%esp
  103607:	68 00 50 10 00       	push   $0x105000
  10360c:	68 6f 01 00 00       	push   $0x16f
  103611:	68 3f 52 10 00       	push   $0x10523f
  103616:	e8 9d 04 00 00       	call   103ab8 <abort>

0010361b <sys_symlink>:
  10361b:	55                   	push   %ebp
  10361c:	89 e5                	mov    %esp,%ebp
  10361e:	83 ec 0c             	sub    $0xc,%esp
  103621:	68 00 50 10 00       	push   $0x105000
  103626:	68 73 01 00 00       	push   $0x173
  10362b:	68 3f 52 10 00       	push   $0x10523f
  103630:	e8 83 04 00 00       	call   103ab8 <abort>

00103635 <sys_wait>:
  103635:	55                   	push   %ebp
  103636:	89 e5                	mov    %esp,%ebp
  103638:	56                   	push   %esi
  103639:	53                   	push   %ebx
  10363a:	8b 75 08             	mov    0x8(%ebp),%esi
  10363d:	e8 41 db ff ff       	call   101183 <proc_curr>
  103642:	8b 98 bc 00 00 00    	mov    0xbc(%eax),%ebx
  103648:	83 7b 1c 00          	cmpl   $0x0,0x1c(%ebx)
  10364c:	74 55                	je     1036a3 <sys_wait+0x6e>
  10364e:	83 ec 0c             	sub    $0xc,%esp
  103651:	8d 43 24             	lea    0x24(%ebx),%eax
  103654:	50                   	push   %eax
  103655:	e8 91 e8 ff ff       	call   101eeb <sem_p>
  10365a:	89 1c 24             	mov    %ebx,(%esp)
  10365d:	e8 4e dc ff ff       	call   1012b0 <proc_findzombie>
  103662:	83 c4 10             	add    $0x10,%esp
  103665:	85 c0                	test   %eax,%eax
  103667:	74 23                	je     10368c <sys_wait+0x57>
  103669:	85 f6                	test   %esi,%esi
  10366b:	74 05                	je     103672 <sys_wait+0x3d>
  10366d:	8b 50 20             	mov    0x20(%eax),%edx
  103670:	89 16                	mov    %edx,(%esi)
  103672:	8b 30                	mov    (%eax),%esi
  103674:	83 ec 0c             	sub    $0xc,%esp
  103677:	50                   	push   %eax
  103678:	e8 f7 da ff ff       	call   101174 <proc_free>
  10367d:	ff 4b 1c             	decl   0x1c(%ebx)
  103680:	83 c4 10             	add    $0x10,%esp
  103683:	89 f0                	mov    %esi,%eax
  103685:	8d 65 f8             	lea    -0x8(%ebp),%esp
  103688:	5b                   	pop    %ebx
  103689:	5e                   	pop    %esi
  10368a:	5d                   	pop    %ebp
  10368b:	c3                   	ret    
  10368c:	83 ec 04             	sub    $0x4,%esp
  10368f:	68 70 52 10 00       	push   $0x105270
  103694:	68 c3 00 00 00       	push   $0xc3
  103699:	68 3f 52 10 00       	push   $0x10523f
  10369e:	e8 15 04 00 00       	call   103ab8 <abort>
  1036a3:	be ff ff ff ff       	mov    $0xffffffff,%esi
  1036a8:	eb d9                	jmp    103683 <sys_wait+0x4e>

001036aa <sys_sem_open>:
  1036aa:	55                   	push   %ebp
  1036ab:	89 e5                	mov    %esp,%ebp
  1036ad:	56                   	push   %esi
  1036ae:	53                   	push   %ebx
  1036af:	e8 cf da ff ff       	call   101183 <proc_curr>
  1036b4:	83 ec 0c             	sub    $0xc,%esp
  1036b7:	50                   	push   %eax
  1036b8:	e8 45 dc ff ff       	call   101302 <proc_allocusem>
  1036bd:	89 c3                	mov    %eax,%ebx
  1036bf:	83 c4 10             	add    $0x10,%esp
  1036c2:	83 f8 ff             	cmp    $0xffffffff,%eax
  1036c5:	74 33                	je     1036fa <sys_sem_open+0x50>
  1036c7:	83 ec 0c             	sub    $0xc,%esp
  1036ca:	ff 75 08             	push   0x8(%ebp)
  1036cd:	e8 78 e8 ff ff       	call   101f4a <usem_alloc>
  1036d2:	89 c6                	mov    %eax,%esi
  1036d4:	83 c4 10             	add    $0x10,%esp
  1036d7:	85 c0                	test   %eax,%eax
  1036d9:	74 28                	je     103703 <sys_sem_open+0x59>
  1036db:	e8 a3 da ff ff       	call   101183 <proc_curr>
  1036e0:	89 74 98 34          	mov    %esi,0x34(%eax,%ebx,4)
  1036e4:	e8 9a da ff ff       	call   101183 <proc_curr>
  1036e9:	83 ec 08             	sub    $0x8,%esp
  1036ec:	53                   	push   %ebx
  1036ed:	50                   	push   %eax
  1036ee:	e8 34 dc ff ff       	call   101327 <proc_getusem>
  1036f3:	83 c4 10             	add    $0x10,%esp
  1036f6:	85 c0                	test   %eax,%eax
  1036f8:	74 10                	je     10370a <sys_sem_open+0x60>
  1036fa:	89 d8                	mov    %ebx,%eax
  1036fc:	8d 65 f8             	lea    -0x8(%ebp),%esp
  1036ff:	5b                   	pop    %ebx
  103700:	5e                   	pop    %esi
  103701:	5d                   	pop    %ebp
  103702:	c3                   	ret    
  103703:	bb ff ff ff ff       	mov    $0xffffffff,%ebx
  103708:	eb f0                	jmp    1036fa <sys_sem_open+0x50>
  10370a:	bb ff ff ff ff       	mov    $0xffffffff,%ebx
  10370f:	eb e9                	jmp    1036fa <sys_sem_open+0x50>

00103711 <sys_cv_open>:
  103711:	55                   	push   %ebp
  103712:	89 e5                	mov    %esp,%ebp
  103714:	83 ec 14             	sub    $0x14,%esp
  103717:	6a 00                	push   $0x0
  103719:	e8 8c ff ff ff       	call   1036aa <sys_sem_open>
  10371e:	c9                   	leave  
  10371f:	c3                   	ret    

00103720 <sys_sem_p>:
  103720:	55                   	push   %ebp
  103721:	89 e5                	mov    %esp,%ebp
  103723:	83 ec 08             	sub    $0x8,%esp
  103726:	e8 58 da ff ff       	call   101183 <proc_curr>
  10372b:	83 ec 08             	sub    $0x8,%esp
  10372e:	ff 75 08             	push   0x8(%ebp)
  103731:	50                   	push   %eax
  103732:	e8 f0 db ff ff       	call   101327 <proc_getusem>
  103737:	83 c4 10             	add    $0x10,%esp
  10373a:	85 c0                	test   %eax,%eax
  10373c:	74 13                	je     103751 <sys_sem_p+0x31>
  10373e:	83 ec 0c             	sub    $0xc,%esp
  103741:	50                   	push   %eax
  103742:	e8 a4 e7 ff ff       	call   101eeb <sem_p>
  103747:	83 c4 10             	add    $0x10,%esp
  10374a:	b8 00 00 00 00       	mov    $0x0,%eax
  10374f:	c9                   	leave  
  103750:	c3                   	ret    
  103751:	b8 ff ff ff ff       	mov    $0xffffffff,%eax
  103756:	eb f7                	jmp    10374f <sys_sem_p+0x2f>

00103758 <sys_sem_v>:
  103758:	55                   	push   %ebp
  103759:	89 e5                	mov    %esp,%ebp
  10375b:	83 ec 08             	sub    $0x8,%esp
  10375e:	e8 20 da ff ff       	call   101183 <proc_curr>
  103763:	83 ec 08             	sub    $0x8,%esp
  103766:	ff 75 08             	push   0x8(%ebp)
  103769:	50                   	push   %eax
  10376a:	e8 b8 db ff ff       	call   101327 <proc_getusem>
  10376f:	83 c4 10             	add    $0x10,%esp
  103772:	85 c0                	test   %eax,%eax
  103774:	74 13                	je     103789 <sys_sem_v+0x31>
  103776:	83 ec 0c             	sub    $0xc,%esp
  103779:	50                   	push   %eax
  10377a:	e8 9e e7 ff ff       	call   101f1d <sem_v>
  10377f:	83 c4 10             	add    $0x10,%esp
  103782:	b8 00 00 00 00       	mov    $0x0,%eax
  103787:	c9                   	leave  
  103788:	c3                   	ret    
  103789:	b8 ff ff ff ff       	mov    $0xffffffff,%eax
  10378e:	eb f7                	jmp    103787 <sys_sem_v+0x2f>

00103790 <sys_cv_wait>:
  103790:	55                   	push   %ebp
  103791:	89 e5                	mov    %esp,%ebp
  103793:	83 ec 14             	sub    $0x14,%esp
  103796:	ff 75 0c             	push   0xc(%ebp)
  103799:	e8 ba ff ff ff       	call   103758 <sys_sem_v>
  10379e:	83 c4 04             	add    $0x4,%esp
  1037a1:	ff 75 08             	push   0x8(%ebp)
  1037a4:	e8 77 ff ff ff       	call   103720 <sys_sem_p>
  1037a9:	c9                   	leave  
  1037aa:	c3                   	ret    

001037ab <sys_cv_sig>:
  1037ab:	55                   	push   %ebp
  1037ac:	89 e5                	mov    %esp,%ebp
  1037ae:	83 ec 14             	sub    $0x14,%esp
  1037b1:	ff 75 08             	push   0x8(%ebp)
  1037b4:	e8 9f ff ff ff       	call   103758 <sys_sem_v>
  1037b9:	c9                   	leave  
  1037ba:	c3                   	ret    

001037bb <sys_cv_sigall>:
  1037bb:	55                   	push   %ebp
  1037bc:	89 e5                	mov    %esp,%ebp
  1037be:	56                   	push   %esi
  1037bf:	53                   	push   %ebx
  1037c0:	8b 5d 08             	mov    0x8(%ebp),%ebx
  1037c3:	e8 bb d9 ff ff       	call   101183 <proc_curr>
  1037c8:	83 ec 08             	sub    $0x8,%esp
  1037cb:	53                   	push   %ebx
  1037cc:	50                   	push   %eax
  1037cd:	e8 55 db ff ff       	call   101327 <proc_getusem>
  1037d2:	89 c6                	mov    %eax,%esi
  1037d4:	e8 aa d9 ff ff       	call   101183 <proc_curr>
  1037d9:	83 c4 08             	add    $0x8,%esp
  1037dc:	53                   	push   %ebx
  1037dd:	50                   	push   %eax
  1037de:	e8 44 db ff ff       	call   101327 <proc_getusem>
  1037e3:	8b 18                	mov    (%eax),%ebx
  1037e5:	83 c4 10             	add    $0x10,%esp
  1037e8:	85 db                	test   %ebx,%ebx
  1037ea:	79 15                	jns    103801 <sys_cv_sigall+0x46>
  1037ec:	f7 d3                	not    %ebx
  1037ee:	83 ec 0c             	sub    $0xc,%esp
  1037f1:	56                   	push   %esi
  1037f2:	e8 26 e7 ff ff       	call   101f1d <sem_v>
  1037f7:	89 d8                	mov    %ebx,%eax
  1037f9:	4b                   	dec    %ebx
  1037fa:	83 c4 10             	add    $0x10,%esp
  1037fd:	85 c0                	test   %eax,%eax
  1037ff:	75 ed                	jne    1037ee <sys_cv_sigall+0x33>
  103801:	b8 00 00 00 00       	mov    $0x0,%eax
  103806:	8d 65 f8             	lea    -0x8(%ebp),%esp
  103809:	5b                   	pop    %ebx
  10380a:	5e                   	pop    %esi
  10380b:	5d                   	pop    %ebp
  10380c:	c3                   	ret    

0010380d <sys_sem_close>:
  10380d:	55                   	push   %ebp
  10380e:	89 e5                	mov    %esp,%ebp
  103810:	53                   	push   %ebx
  103811:	83 ec 04             	sub    $0x4,%esp
  103814:	8b 5d 08             	mov    0x8(%ebp),%ebx
  103817:	e8 67 d9 ff ff       	call   101183 <proc_curr>
  10381c:	83 ec 08             	sub    $0x8,%esp
  10381f:	53                   	push   %ebx
  103820:	50                   	push   %eax
  103821:	e8 01 db ff ff       	call   101327 <proc_getusem>
  103826:	83 c4 10             	add    $0x10,%esp
  103829:	85 c0                	test   %eax,%eax
  10382b:	74 23                	je     103850 <sys_sem_close+0x43>
  10382d:	83 ec 0c             	sub    $0xc,%esp
  103830:	50                   	push   %eax
  103831:	e8 93 e7 ff ff       	call   101fc9 <usem_close>
  103836:	e8 48 d9 ff ff       	call   101183 <proc_curr>
  10383b:	c7 44 98 34 00 00 00 	movl   $0x0,0x34(%eax,%ebx,4)
  103842:	00 
  103843:	83 c4 10             	add    $0x10,%esp
  103846:	b8 00 00 00 00       	mov    $0x0,%eax
  10384b:	8b 5d fc             	mov    -0x4(%ebp),%ebx
  10384e:	c9                   	leave  
  10384f:	c3                   	ret    
  103850:	b8 ff ff ff ff       	mov    $0xffffffff,%eax
  103855:	eb f4                	jmp    10384b <sys_sem_close+0x3e>

00103857 <sys_cv_close>:
  103857:	55                   	push   %ebp
  103858:	89 e5                	mov    %esp,%ebp
  10385a:	83 ec 14             	sub    $0x14,%esp
  10385d:	ff 75 08             	push   0x8(%ebp)
  103860:	e8 a8 ff ff ff       	call   10380d <sys_sem_close>
  103865:	c9                   	leave  
  103866:	c3                   	ret    

00103867 <sys_unlink>:
  103867:	55                   	push   %ebp
  103868:	89 e5                	mov    %esp,%ebp
  10386a:	83 ec 14             	sub    $0x14,%esp
  10386d:	ff 75 08             	push   0x8(%ebp)
  103870:	e8 f8 e9 ff ff       	call   10226d <iremove>
  103875:	c9                   	leave  
  103876:	c3                   	ret    

00103877 <sys_mmap>:
  103877:	55                   	push   %ebp
  103878:	89 e5                	mov    %esp,%ebp
  10387a:	53                   	push   %ebx
  10387b:	83 ec 04             	sub    $0x4,%esp
  10387e:	bb 00 00 00 c0       	mov    $0xc0000000,%ebx
  103883:	e8 ea f2 ff ff       	call   102b72 <vm_curr>
  103888:	83 ec 04             	sub    $0x4,%esp
  10388b:	6a 00                	push   $0x0
  10388d:	53                   	push   %ebx
  10388e:	50                   	push   %eax
  10388f:	e8 f4 f2 ff ff       	call   102b88 <vm_walkpte>
  103894:	83 c4 10             	add    $0x10,%esp
  103897:	85 c0                	test   %eax,%eax
  103899:	74 1a                	je     1038b5 <sys_mmap+0x3e>
  10389b:	f6 00 01             	testb  $0x1,(%eax)
  10389e:	74 15                	je     1038b5 <sys_mmap+0x3e>
  1038a0:	81 c3 00 10 00 00    	add    $0x1000,%ebx
  1038a6:	81 fb 00 00 00 f0    	cmp    $0xf0000000,%ebx
  1038ac:	75 d5                	jne    103883 <sys_mmap+0xc>
  1038ae:	b8 00 00 00 00       	mov    $0x0,%eax
  1038b3:	eb 18                	jmp    1038cd <sys_mmap+0x56>
  1038b5:	e8 b8 f2 ff ff       	call   102b72 <vm_curr>
  1038ba:	6a 07                	push   $0x7
  1038bc:	68 00 10 00 00       	push   $0x1000
  1038c1:	53                   	push   %ebx
  1038c2:	50                   	push   %eax
  1038c3:	e8 b1 f3 ff ff       	call   102c79 <vm_map>
  1038c8:	89 d8                	mov    %ebx,%eax
  1038ca:	83 c4 10             	add    $0x10,%esp
  1038cd:	8b 5d fc             	mov    -0x4(%ebp),%ebx
  1038d0:	c9                   	leave  
  1038d1:	c3                   	ret    

001038d2 <do_syscall>:
  1038d2:	55                   	push   %ebp
  1038d3:	89 e5                	mov    %esp,%ebp
  1038d5:	53                   	push   %ebx
  1038d6:	83 ec 04             	sub    $0x4,%esp
  1038d9:	8b 5d 08             	mov    0x8(%ebp),%ebx
  1038dc:	8b 43 1c             	mov    0x1c(%ebx),%eax
  1038df:	83 f8 29             	cmp    $0x29,%eax
  1038e2:	77 24                	ja     103908 <do_syscall+0x36>
  1038e4:	83 ec 0c             	sub    $0xc,%esp
  1038e7:	ff 73 08             	push   0x8(%ebx)
  1038ea:	ff 73 0c             	push   0xc(%ebx)
  1038ed:	ff 73 10             	push   0x10(%ebx)
  1038f0:	ff 73 14             	push   0x14(%ebx)
  1038f3:	ff 73 18             	push   0x18(%ebx)
  1038f6:	ff 14 85 c0 65 10 00 	call   *0x1065c0(,%eax,4)
  1038fd:	83 c4 20             	add    $0x20,%esp
  103900:	89 43 1c             	mov    %eax,0x1c(%ebx)
  103903:	8b 5d fc             	mov    -0x4(%ebp),%ebx
  103906:	c9                   	leave  
  103907:	c3                   	ret    
  103908:	b8 ff ff ff ff       	mov    $0xffffffff,%eax
  10390d:	eb f1                	jmp    103900 <do_syscall+0x2e>

0010390f <list_remove_prev>:
  10390f:	3b 40 08             	cmp    0x8(%eax),%eax
  103912:	74 13                	je     103927 <list_remove_prev+0x18>
  103914:	8b 40 04             	mov    0x4(%eax),%eax
  103917:	8b 48 04             	mov    0x4(%eax),%ecx
  10391a:	8b 50 08             	mov    0x8(%eax),%edx
  10391d:	89 51 08             	mov    %edx,0x8(%ecx)
  103920:	8b 48 04             	mov    0x4(%eax),%ecx
  103923:	89 4a 04             	mov    %ecx,0x4(%edx)
  103926:	c3                   	ret    
  103927:	55                   	push   %ebp
  103928:	89 e5                	mov    %esp,%ebp
  10392a:	83 ec 0c             	sub    $0xc,%esp
  10392d:	68 99 52 10 00       	push   $0x105299
  103932:	6a 11                	push   $0x11
  103934:	68 ab 52 10 00       	push   $0x1052ab
  103939:	e8 7a 01 00 00       	call   103ab8 <abort>

0010393e <list_init>:
  10393e:	55                   	push   %ebp
  10393f:	89 e5                	mov    %esp,%ebp
  103941:	53                   	push   %ebx
  103942:	83 ec 04             	sub    $0x4,%esp
  103945:	8b 5d 08             	mov    0x8(%ebp),%ebx
  103948:	83 3d 80 ee 15 00 00 	cmpl   $0x0,0x15ee80
  10394f:	74 0b                	je     10395c <list_init+0x1e>
  103951:	89 5b 08             	mov    %ebx,0x8(%ebx)
  103954:	89 5b 04             	mov    %ebx,0x4(%ebx)
  103957:	8b 5d fc             	mov    -0x4(%ebp),%ebx
  10395a:	c9                   	leave  
  10395b:	c3                   	ret    
  10395c:	c7 05 80 ee 15 00 01 	movl   $0x1,0x15ee80
  103963:	00 00 00 
  103966:	83 ec 0c             	sub    $0xc,%esp
  103969:	68 84 ee 15 00       	push   $0x15ee84
  10396e:	e8 cb ff ff ff       	call   10393e <list_init>
  103973:	b8 a0 ee 15 00       	mov    $0x15eea0,%eax
  103978:	b9 a0 fa 15 00       	mov    $0x15faa0,%ecx
  10397d:	83 c4 10             	add    $0x10,%esp
  103980:	c7 40 04 84 ee 15 00 	movl   $0x15ee84,0x4(%eax)
  103987:	8b 15 8c ee 15 00    	mov    0x15ee8c,%edx
  10398d:	89 50 08             	mov    %edx,0x8(%eax)
  103990:	a3 8c ee 15 00       	mov    %eax,0x15ee8c
  103995:	89 42 04             	mov    %eax,0x4(%edx)
  103998:	83 c0 0c             	add    $0xc,%eax
  10399b:	39 c8                	cmp    %ecx,%eax
  10399d:	75 e1                	jne    103980 <list_init+0x42>
  10399f:	eb b0                	jmp    103951 <list_init+0x13>

001039a1 <list_empty>:
  1039a1:	55                   	push   %ebp
  1039a2:	89 e5                	mov    %esp,%ebp
  1039a4:	8b 45 08             	mov    0x8(%ebp),%eax
  1039a7:	39 40 08             	cmp    %eax,0x8(%eax)
  1039aa:	0f 94 c0             	sete   %al
  1039ad:	0f b6 c0             	movzbl %al,%eax
  1039b0:	5d                   	pop    %ebp
  1039b1:	c3                   	ret    

001039b2 <list_enqueue>:
  1039b2:	55                   	push   %ebp
  1039b3:	89 e5                	mov    %esp,%ebp
  1039b5:	53                   	push   %ebx
  1039b6:	83 ec 04             	sub    $0x4,%esp
  1039b9:	8b 5d 08             	mov    0x8(%ebp),%ebx
  1039bc:	b8 84 ee 15 00       	mov    $0x15ee84,%eax
  1039c1:	e8 49 ff ff ff       	call   10390f <list_remove_prev>
  1039c6:	8b 55 0c             	mov    0xc(%ebp),%edx
  1039c9:	89 10                	mov    %edx,(%eax)
  1039cb:	89 58 04             	mov    %ebx,0x4(%eax)
  1039ce:	8b 53 08             	mov    0x8(%ebx),%edx
  1039d1:	89 50 08             	mov    %edx,0x8(%eax)
  1039d4:	89 43 08             	mov    %eax,0x8(%ebx)
  1039d7:	8b 50 08             	mov    0x8(%eax),%edx
  1039da:	89 42 04             	mov    %eax,0x4(%edx)
  1039dd:	8b 5d fc             	mov    -0x4(%ebp),%ebx
  1039e0:	c9                   	leave  
  1039e1:	c3                   	ret    

001039e2 <list_dequeue>:
  1039e2:	55                   	push   %ebp
  1039e3:	89 e5                	mov    %esp,%ebp
  1039e5:	83 ec 08             	sub    $0x8,%esp
  1039e8:	8b 45 08             	mov    0x8(%ebp),%eax
  1039eb:	3b 40 08             	cmp    0x8(%eax),%eax
  1039ee:	74 26                	je     103a16 <list_dequeue+0x34>
  1039f0:	e8 1a ff ff ff       	call   10390f <list_remove_prev>
  1039f5:	8b 10                	mov    (%eax),%edx
  1039f7:	c7 40 04 84 ee 15 00 	movl   $0x15ee84,0x4(%eax)
  1039fe:	8b 0d 8c ee 15 00    	mov    0x15ee8c,%ecx
  103a04:	89 48 08             	mov    %ecx,0x8(%eax)
  103a07:	a3 8c ee 15 00       	mov    %eax,0x15ee8c
  103a0c:	8b 48 08             	mov    0x8(%eax),%ecx
  103a0f:	89 41 04             	mov    %eax,0x4(%ecx)
  103a12:	89 d0                	mov    %edx,%eax
  103a14:	c9                   	leave  
  103a15:	c3                   	ret    
  103a16:	ba 00 00 00 00       	mov    $0x0,%edx
  103a1b:	eb f5                	jmp    103a12 <list_dequeue+0x30>

00103a1d <list_remove>:
  103a1d:	55                   	push   %ebp
  103a1e:	89 e5                	mov    %esp,%ebp
  103a20:	8b 45 0c             	mov    0xc(%ebp),%eax
  103a23:	8b 48 08             	mov    0x8(%eax),%ecx
  103a26:	8b 50 04             	mov    0x4(%eax),%edx
  103a29:	89 51 04             	mov    %edx,0x4(%ecx)
  103a2c:	8b 48 08             	mov    0x8(%eax),%ecx
  103a2f:	89 4a 08             	mov    %ecx,0x8(%edx)
  103a32:	c7 40 04 84 ee 15 00 	movl   $0x15ee84,0x4(%eax)
  103a39:	8b 15 8c ee 15 00    	mov    0x15ee8c,%edx
  103a3f:	89 50 08             	mov    %edx,0x8(%eax)
  103a42:	a3 8c ee 15 00       	mov    %eax,0x15ee8c
  103a47:	8b 50 08             	mov    0x8(%eax),%edx
  103a4a:	89 42 04             	mov    %eax,0x4(%edx)
  103a4d:	5d                   	pop    %ebp
  103a4e:	c3                   	ret    

00103a4f <putstrn>:
  103a4f:	55                   	push   %ebp
  103a50:	89 e5                	mov    %esp,%ebp
  103a52:	56                   	push   %esi
  103a53:	53                   	push   %ebx
  103a54:	8b 45 0c             	mov    0xc(%ebp),%eax
  103a57:	85 c0                	test   %eax,%eax
  103a59:	74 1b                	je     103a76 <putstrn+0x27>
  103a5b:	8b 5d 08             	mov    0x8(%ebp),%ebx
  103a5e:	01 d8                	add    %ebx,%eax
  103a60:	89 c6                	mov    %eax,%esi
  103a62:	83 ec 0c             	sub    $0xc,%esp
  103a65:	0f be 03             	movsbl (%ebx),%eax
  103a68:	50                   	push   %eax
  103a69:	e8 ab e1 ff ff       	call   101c19 <putchar>
  103a6e:	43                   	inc    %ebx
  103a6f:	83 c4 10             	add    $0x10,%esp
  103a72:	39 f3                	cmp    %esi,%ebx
  103a74:	75 ec                	jne    103a62 <putstrn+0x13>
  103a76:	8d 65 f8             	lea    -0x8(%ebp),%esp
  103a79:	5b                   	pop    %ebx
  103a7a:	5e                   	pop    %esi
  103a7b:	5d                   	pop    %ebp
  103a7c:	c3                   	ret    

00103a7d <putstr>:
  103a7d:	55                   	push   %ebp
  103a7e:	89 e5                	mov    %esp,%ebp
  103a80:	53                   	push   %ebx
  103a81:	83 ec 10             	sub    $0x10,%esp
  103a84:	8b 5d 08             	mov    0x8(%ebp),%ebx
  103a87:	53                   	push   %ebx
  103a88:	e8 5c 0b 00 00       	call   1045e9 <strlen>
  103a8d:	83 c4 08             	add    $0x8,%esp
  103a90:	50                   	push   %eax
  103a91:	53                   	push   %ebx
  103a92:	e8 b8 ff ff ff       	call   103a4f <putstrn>
  103a97:	83 c4 10             	add    $0x10,%esp
  103a9a:	8b 5d fc             	mov    -0x4(%ebp),%ebx
  103a9d:	c9                   	leave  
  103a9e:	c3                   	ret    

00103a9f <printf>:
  103a9f:	55                   	push   %ebp
  103aa0:	89 e5                	mov    %esp,%ebp
  103aa2:	83 ec 0c             	sub    $0xc,%esp
  103aa5:	8d 45 0c             	lea    0xc(%ebp),%eax
  103aa8:	50                   	push   %eax
  103aa9:	ff 75 08             	push   0x8(%ebp)
  103aac:	68 7d 3a 10 00       	push   $0x103a7d
  103ab1:	e8 58 0a 00 00       	call   10450e <vcprintf>
  103ab6:	c9                   	leave  
  103ab7:	c3                   	ret    

00103ab8 <abort>:
  103ab8:	55                   	push   %ebp
  103ab9:	89 e5                	mov    %esp,%ebp
  103abb:	83 ec 08             	sub    $0x8,%esp
  103abe:	8b 45 10             	mov    0x10(%ebp),%eax
  103ac1:	fa                   	cli    
  103ac2:	85 c0                	test   %eax,%eax
  103ac4:	74 17                	je     103add <abort+0x25>
  103ac6:	50                   	push   %eax
  103ac7:	ff 75 0c             	push   0xc(%ebp)
  103aca:	ff 75 08             	push   0x8(%ebp)
  103acd:	68 be 52 10 00       	push   $0x1052be
  103ad2:	e8 c8 ff ff ff       	call   103a9f <printf>
  103ad7:	83 c4 10             	add    $0x10,%esp
  103ada:	f4                   	hlt    
  103adb:	eb fd                	jmp    103ada <abort+0x22>
  103add:	b8 92 50 10 00       	mov    $0x105092,%eax
  103ae2:	eb e2                	jmp    103ac6 <abort+0xe>

00103ae4 <irq0>:
  103ae4:	6a 00                	push   $0x0
  103ae6:	6a 00                	push   $0x0
  103ae8:	e9 f6 00 00 00       	jmp    103be3 <trap>

00103aed <irq1>:
  103aed:	6a 00                	push   $0x0
  103aef:	6a 01                	push   $0x1
  103af1:	e9 ed 00 00 00       	jmp    103be3 <trap>

00103af6 <irq2>:
  103af6:	6a 00                	push   $0x0
  103af8:	6a 02                	push   $0x2
  103afa:	e9 e4 00 00 00       	jmp    103be3 <trap>

00103aff <irq3>:
  103aff:	6a 00                	push   $0x0
  103b01:	6a 03                	push   $0x3
  103b03:	e9 db 00 00 00       	jmp    103be3 <trap>

00103b08 <irq4>:
  103b08:	6a 00                	push   $0x0
  103b0a:	6a 04                	push   $0x4
  103b0c:	e9 d2 00 00 00       	jmp    103be3 <trap>

00103b11 <irq5>:
  103b11:	6a 00                	push   $0x0
  103b13:	6a 05                	push   $0x5
  103b15:	e9 c9 00 00 00       	jmp    103be3 <trap>

00103b1a <irq6>:
  103b1a:	6a 00                	push   $0x0
  103b1c:	6a 06                	push   $0x6
  103b1e:	e9 c0 00 00 00       	jmp    103be3 <trap>

00103b23 <irq7>:
  103b23:	6a 00                	push   $0x0
  103b25:	6a 07                	push   $0x7
  103b27:	e9 b7 00 00 00       	jmp    103be3 <trap>

00103b2c <irq8>:
  103b2c:	6a 08                	push   $0x8
  103b2e:	e9 b0 00 00 00       	jmp    103be3 <trap>

00103b33 <irq9>:
  103b33:	6a 00                	push   $0x0
  103b35:	6a 09                	push   $0x9
  103b37:	e9 a7 00 00 00       	jmp    103be3 <trap>

00103b3c <irq10>:
  103b3c:	6a 0a                	push   $0xa
  103b3e:	e9 a0 00 00 00       	jmp    103be3 <trap>

00103b43 <irq11>:
  103b43:	6a 0b                	push   $0xb
  103b45:	e9 99 00 00 00       	jmp    103be3 <trap>

00103b4a <irq12>:
  103b4a:	6a 0c                	push   $0xc
  103b4c:	e9 92 00 00 00       	jmp    103be3 <trap>

00103b51 <irq13>:
  103b51:	6a 0d                	push   $0xd
  103b53:	e9 8b 00 00 00       	jmp    103be3 <trap>

00103b58 <irq14>:
  103b58:	6a 0e                	push   $0xe
  103b5a:	e9 84 00 00 00       	jmp    103be3 <trap>

00103b5f <irq15>:
  103b5f:	6a 00                	push   $0x0
  103b61:	6a 0f                	push   $0xf
  103b63:	eb 7e                	jmp    103be3 <trap>

00103b65 <irq16>:
  103b65:	6a 00                	push   $0x0
  103b67:	6a 10                	push   $0x10
  103b69:	eb 78                	jmp    103be3 <trap>

00103b6b <irq32>:
  103b6b:	6a 00                	push   $0x0
  103b6d:	6a 20                	push   $0x20
  103b6f:	eb 72                	jmp    103be3 <trap>

00103b71 <irq33>:
  103b71:	6a 00                	push   $0x0
  103b73:	6a 21                	push   $0x21
  103b75:	eb 6c                	jmp    103be3 <trap>

00103b77 <irq34>:
  103b77:	6a 00                	push   $0x0
  103b79:	6a 22                	push   $0x22
  103b7b:	eb 66                	jmp    103be3 <trap>

00103b7d <irq35>:
  103b7d:	6a 00                	push   $0x0
  103b7f:	6a 23                	push   $0x23
  103b81:	eb 60                	jmp    103be3 <trap>

00103b83 <irq36>:
  103b83:	6a 00                	push   $0x0
  103b85:	6a 24                	push   $0x24
  103b87:	eb 5a                	jmp    103be3 <trap>

00103b89 <irq37>:
  103b89:	6a 00                	push   $0x0
  103b8b:	6a 25                	push   $0x25
  103b8d:	eb 54                	jmp    103be3 <trap>

00103b8f <irq38>:
  103b8f:	6a 00                	push   $0x0
  103b91:	6a 26                	push   $0x26
  103b93:	eb 4e                	jmp    103be3 <trap>

00103b95 <irq39>:
  103b95:	6a 00                	push   $0x0
  103b97:	6a 27                	push   $0x27
  103b99:	eb 48                	jmp    103be3 <trap>

00103b9b <irq40>:
  103b9b:	6a 00                	push   $0x0
  103b9d:	6a 28                	push   $0x28
  103b9f:	eb 42                	jmp    103be3 <trap>

00103ba1 <irq41>:
  103ba1:	6a 00                	push   $0x0
  103ba3:	6a 29                	push   $0x29
  103ba5:	eb 3c                	jmp    103be3 <trap>

00103ba7 <irq42>:
  103ba7:	6a 00                	push   $0x0
  103ba9:	6a 2a                	push   $0x2a
  103bab:	eb 36                	jmp    103be3 <trap>

00103bad <irq43>:
  103bad:	6a 00                	push   $0x0
  103baf:	6a 2b                	push   $0x2b
  103bb1:	eb 30                	jmp    103be3 <trap>

00103bb3 <irq44>:
  103bb3:	6a 00                	push   $0x0
  103bb5:	6a 2c                	push   $0x2c
  103bb7:	eb 2a                	jmp    103be3 <trap>

00103bb9 <irq45>:
  103bb9:	6a 00                	push   $0x0
  103bbb:	6a 2d                	push   $0x2d
  103bbd:	eb 24                	jmp    103be3 <trap>

00103bbf <irq46>:
  103bbf:	6a 00                	push   $0x0
  103bc1:	6a 2e                	push   $0x2e
  103bc3:	eb 1e                	jmp    103be3 <trap>

00103bc5 <irq47>:
  103bc5:	6a 00                	push   $0x0
  103bc7:	6a 2f                	push   $0x2f
  103bc9:	eb 18                	jmp    103be3 <trap>

00103bcb <irq128>:
  103bcb:	6a 00                	push   $0x0
  103bcd:	68 80 00 00 00       	push   $0x80
  103bd2:	eb 0f                	jmp    103be3 <trap>

00103bd4 <irq129>:
  103bd4:	6a 00                	push   $0x0
  103bd6:	68 81 00 00 00       	push   $0x81
  103bdb:	eb 06                	jmp    103be3 <trap>

00103bdd <irqall>:
  103bdd:	6a 00                	push   $0x0
  103bdf:	6a ff                	push   $0xffffffff
  103be1:	eb 00                	jmp    103be3 <trap>

00103be3 <trap>:
  103be3:	50                   	push   %eax
  103be4:	53                   	push   %ebx
  103be5:	51                   	push   %ecx
  103be6:	52                   	push   %edx
  103be7:	56                   	push   %esi
  103be8:	57                   	push   %edi
  103be9:	55                   	push   %ebp
  103bea:	66 8c d8             	mov    %ds,%ax
  103bed:	50                   	push   %eax
  103bee:	66 b8 10 00          	mov    $0x10,%ax
  103bf2:	8e d8                	mov    %eax,%ds
  103bf4:	8e c0                	mov    %eax,%es
  103bf6:	54                   	push   %esp
  103bf7:	e8 a9 de ff ff       	call   101aa5 <irq_handle>
  103bfc:	eb fe                	jmp    103bfc <trap+0x19>

00103bfe <irq_iret>:
  103bfe:	8b 44 24 04          	mov    0x4(%esp),%eax
  103c02:	89 c4                	mov    %eax,%esp
  103c04:	58                   	pop    %eax
  103c05:	8e d8                	mov    %eax,%ds
  103c07:	8e c0                	mov    %eax,%es
  103c09:	5d                   	pop    %ebp
  103c0a:	5f                   	pop    %edi
  103c0b:	5e                   	pop    %esi
  103c0c:	5a                   	pop    %edx
  103c0d:	59                   	pop    %ecx
  103c0e:	5b                   	pop    %ebx
  103c0f:	58                   	pop    %eax
  103c10:	83 c4 08             	add    $0x8,%esp
  103c13:	cf                   	iret   

00103c14 <number>:
  103c14:	55                   	push   %ebp
  103c15:	89 e5                	mov    %esp,%ebp
  103c17:	57                   	push   %edi
  103c18:	56                   	push   %esi
  103c19:	53                   	push   %ebx
  103c1a:	83 ec 64             	sub    $0x64,%esp
  103c1d:	89 c6                	mov    %eax,%esi
  103c1f:	89 4d 98             	mov    %ecx,-0x68(%ebp)
  103c22:	8b 7d 10             	mov    0x10(%ebp),%edi
  103c25:	f7 c7 40 00 00 00    	test   $0x40,%edi
  103c2b:	75 52                	jne    103c7f <number+0x6b>
  103c2d:	bb d4 52 10 00       	mov    $0x1052d4,%ebx
  103c32:	f7 c7 10 00 00 00    	test   $0x10,%edi
  103c38:	74 03                	je     103c3d <number+0x29>
  103c3a:	83 e7 fe             	and    $0xfffffffe,%edi
  103c3d:	8b 45 98             	mov    -0x68(%ebp),%eax
  103c40:	89 45 9c             	mov    %eax,-0x64(%ebp)
  103c43:	83 e8 02             	sub    $0x2,%eax
  103c46:	83 f8 22             	cmp    $0x22,%eax
  103c49:	0f 87 d3 01 00 00    	ja     103e22 <number+0x20e>
  103c4f:	89 f8                	mov    %edi,%eax
  103c51:	83 e0 01             	and    $0x1,%eax
  103c54:	83 f8 01             	cmp    $0x1,%eax
  103c57:	19 c0                	sbb    %eax,%eax
  103c59:	83 e0 f0             	and    $0xfffffff0,%eax
  103c5c:	83 c0 30             	add    $0x30,%eax
  103c5f:	88 45 92             	mov    %al,-0x6e(%ebp)
  103c62:	f7 c7 02 00 00 00    	test   $0x2,%edi
  103c68:	74 6a                	je     103cd4 <number+0xc0>
  103c6a:	85 d2                	test   %edx,%edx
  103c6c:	78 18                	js     103c86 <number+0x72>
  103c6e:	f7 c7 04 00 00 00    	test   $0x4,%edi
  103c74:	74 49                	je     103cbf <number+0xab>
  103c76:	ff 4d 08             	decl   0x8(%ebp)
  103c79:	c6 45 93 2b          	movb   $0x2b,-0x6d(%ebp)
  103c7d:	eb 59                	jmp    103cd8 <number+0xc4>
  103c7f:	bb fc 52 10 00       	mov    $0x1052fc,%ebx
  103c84:	eb ac                	jmp    103c32 <number+0x1e>
  103c86:	f7 da                	neg    %edx
  103c88:	ff 4d 08             	decl   0x8(%ebp)
  103c8b:	89 f8                	mov    %edi,%eax
  103c8d:	83 e0 20             	and    $0x20,%eax
  103c90:	89 45 94             	mov    %eax,-0x6c(%ebp)
  103c93:	0f 85 42 01 00 00    	jne    103ddb <number+0x1c7>
  103c99:	c6 45 93 2d          	movb   $0x2d,-0x6d(%ebp)
  103c9d:	b9 00 00 00 00       	mov    $0x0,%ecx
  103ca2:	41                   	inc    %ecx
  103ca3:	89 d0                	mov    %edx,%eax
  103ca5:	ba 00 00 00 00       	mov    $0x0,%edx
  103caa:	f7 75 9c             	divl   -0x64(%ebp)
  103cad:	8a 14 13             	mov    (%ebx,%edx,1),%dl
  103cb0:	88 55 a0             	mov    %dl,-0x60(%ebp)
  103cb3:	88 54 0d b1          	mov    %dl,-0x4f(%ebp,%ecx,1)
  103cb7:	89 c2                	mov    %eax,%edx
  103cb9:	85 c0                	test   %eax,%eax
  103cbb:	75 e5                	jne    103ca2 <number+0x8e>
  103cbd:	eb 44                	jmp    103d03 <number+0xef>
  103cbf:	f7 c7 08 00 00 00    	test   $0x8,%edi
  103cc5:	0f 84 07 01 00 00    	je     103dd2 <number+0x1be>
  103ccb:	ff 4d 08             	decl   0x8(%ebp)
  103cce:	c6 45 93 20          	movb   $0x20,-0x6d(%ebp)
  103cd2:	eb 04                	jmp    103cd8 <number+0xc4>
  103cd4:	c6 45 93 00          	movb   $0x0,-0x6d(%ebp)
  103cd8:	89 f8                	mov    %edi,%eax
  103cda:	83 e0 20             	and    $0x20,%eax
  103cdd:	89 45 94             	mov    %eax,-0x6c(%ebp)
  103ce0:	74 14                	je     103cf6 <number+0xe2>
  103ce2:	83 7d 98 10          	cmpl   $0x10,-0x68(%ebp)
  103ce6:	0f 84 f8 00 00 00    	je     103de4 <number+0x1d0>
  103cec:	83 7d 98 08          	cmpl   $0x8,-0x68(%ebp)
  103cf0:	0f 84 f7 00 00 00    	je     103ded <number+0x1d9>
  103cf6:	85 d2                	test   %edx,%edx
  103cf8:	75 a3                	jne    103c9d <number+0x89>
  103cfa:	c6 45 b2 30          	movb   $0x30,-0x4e(%ebp)
  103cfe:	b9 01 00 00 00       	mov    $0x1,%ecx
  103d03:	89 c8                	mov    %ecx,%eax
  103d05:	3b 4d 0c             	cmp    0xc(%ebp),%ecx
  103d08:	7d 03                	jge    103d0d <number+0xf9>
  103d0a:	8b 45 0c             	mov    0xc(%ebp),%eax
  103d0d:	8b 5d 08             	mov    0x8(%ebp),%ebx
  103d10:	29 c3                	sub    %eax,%ebx
  103d12:	f7 c7 11 00 00 00    	test   $0x11,%edi
  103d18:	75 1b                	jne    103d35 <number+0x121>
  103d1a:	8d 14 1e             	lea    (%esi,%ebx,1),%edx
  103d1d:	85 db                	test   %ebx,%ebx
  103d1f:	0f 8e d0 00 00 00    	jle    103df5 <number+0x1e1>
  103d25:	46                   	inc    %esi
  103d26:	c6 46 ff 20          	movb   $0x20,-0x1(%esi)
  103d2a:	39 d6                	cmp    %edx,%esi
  103d2c:	75 f7                	jne    103d25 <number+0x111>
  103d2e:	89 d6                	mov    %edx,%esi
  103d30:	bb ff ff ff ff       	mov    $0xffffffff,%ebx
  103d35:	8a 55 93             	mov    -0x6d(%ebp),%dl
  103d38:	84 d2                	test   %dl,%dl
  103d3a:	74 05                	je     103d41 <number+0x12d>
  103d3c:	88 16                	mov    %dl,(%esi)
  103d3e:	8d 76 01             	lea    0x1(%esi),%esi
  103d41:	83 7d 94 00          	cmpl   $0x0,-0x6c(%ebp)
  103d45:	74 14                	je     103d5b <number+0x147>
  103d47:	83 7d 98 08          	cmpl   $0x8,-0x68(%ebp)
  103d4b:	0f 84 aa 00 00 00    	je     103dfb <number+0x1e7>
  103d51:	83 7d 98 10          	cmpl   $0x10,-0x68(%ebp)
  103d55:	0f 84 ab 00 00 00    	je     103e06 <number+0x1f2>
  103d5b:	f7 c7 10 00 00 00    	test   $0x10,%edi
  103d61:	75 1d                	jne    103d80 <number+0x16c>
  103d63:	8d 14 1e             	lea    (%esi,%ebx,1),%edx
  103d66:	85 db                	test   %ebx,%ebx
  103d68:	0f 8e a7 00 00 00    	jle    103e15 <number+0x201>
  103d6e:	8a 5d 92             	mov    -0x6e(%ebp),%bl
  103d71:	46                   	inc    %esi
  103d72:	88 5e ff             	mov    %bl,-0x1(%esi)
  103d75:	39 d6                	cmp    %edx,%esi
  103d77:	75 f8                	jne    103d71 <number+0x15d>
  103d79:	89 d6                	mov    %edx,%esi
  103d7b:	bb ff ff ff ff       	mov    $0xffffffff,%ebx
  103d80:	39 c1                	cmp    %eax,%ecx
  103d82:	0f 8d 93 00 00 00    	jge    103e1b <number+0x207>
  103d88:	29 c8                	sub    %ecx,%eax
  103d8a:	01 f0                	add    %esi,%eax
  103d8c:	46                   	inc    %esi
  103d8d:	c6 46 ff 30          	movb   $0x30,-0x1(%esi)
  103d91:	39 c6                	cmp    %eax,%esi
  103d93:	75 f7                	jne    103d8c <number+0x178>
  103d95:	85 c9                	test   %ecx,%ecx
  103d97:	7e 20                	jle    103db9 <number+0x1a5>
  103d99:	89 cf                	mov    %ecx,%edi
  103d9b:	8d 75 b2             	lea    -0x4e(%ebp),%esi
  103d9e:	8d 54 0d b1          	lea    -0x4f(%ebp,%ecx,1),%edx
  103da2:	89 c1                	mov    %eax,%ecx
  103da4:	89 45 a0             	mov    %eax,-0x60(%ebp)
  103da7:	41                   	inc    %ecx
  103da8:	8a 02                	mov    (%edx),%al
  103daa:	88 41 ff             	mov    %al,-0x1(%ecx)
  103dad:	89 d0                	mov    %edx,%eax
  103daf:	4a                   	dec    %edx
  103db0:	39 f0                	cmp    %esi,%eax
  103db2:	75 f3                	jne    103da7 <number+0x193>
  103db4:	8b 45 a0             	mov    -0x60(%ebp),%eax
  103db7:	01 f8                	add    %edi,%eax
  103db9:	85 db                	test   %ebx,%ebx
  103dbb:	7e 6c                	jle    103e29 <number+0x215>
  103dbd:	01 c3                	add    %eax,%ebx
  103dbf:	40                   	inc    %eax
  103dc0:	c6 40 ff 20          	movb   $0x20,-0x1(%eax)
  103dc4:	39 d8                	cmp    %ebx,%eax
  103dc6:	75 f7                	jne    103dbf <number+0x1ab>
  103dc8:	89 d8                	mov    %ebx,%eax
  103dca:	83 c4 64             	add    $0x64,%esp
  103dcd:	5b                   	pop    %ebx
  103dce:	5e                   	pop    %esi
  103dcf:	5f                   	pop    %edi
  103dd0:	5d                   	pop    %ebp
  103dd1:	c3                   	ret    
  103dd2:	c6 45 93 00          	movb   $0x0,-0x6d(%ebp)
  103dd6:	e9 fd fe ff ff       	jmp    103cd8 <number+0xc4>
  103ddb:	c6 45 93 2d          	movb   $0x2d,-0x6d(%ebp)
  103ddf:	e9 fe fe ff ff       	jmp    103ce2 <number+0xce>
  103de4:	83 6d 08 02          	subl   $0x2,0x8(%ebp)
  103de8:	e9 09 ff ff ff       	jmp    103cf6 <number+0xe2>
  103ded:	ff 4d 08             	decl   0x8(%ebp)
  103df0:	e9 01 ff ff ff       	jmp    103cf6 <number+0xe2>
  103df5:	4b                   	dec    %ebx
  103df6:	e9 3a ff ff ff       	jmp    103d35 <number+0x121>
  103dfb:	c6 06 30             	movb   $0x30,(%esi)
  103dfe:	8d 76 01             	lea    0x1(%esi),%esi
  103e01:	e9 55 ff ff ff       	jmp    103d5b <number+0x147>
  103e06:	c6 06 30             	movb   $0x30,(%esi)
  103e09:	c6 46 01 78          	movb   $0x78,0x1(%esi)
  103e0d:	8d 76 02             	lea    0x2(%esi),%esi
  103e10:	e9 46 ff ff ff       	jmp    103d5b <number+0x147>
  103e15:	4b                   	dec    %ebx
  103e16:	e9 65 ff ff ff       	jmp    103d80 <number+0x16c>
  103e1b:	89 f0                	mov    %esi,%eax
  103e1d:	e9 73 ff ff ff       	jmp    103d95 <number+0x181>
  103e22:	bb 00 00 00 00       	mov    $0x0,%ebx
  103e27:	eb 9f                	jmp    103dc8 <number+0x1b4>
  103e29:	89 c3                	mov    %eax,%ebx
  103e2b:	eb 9b                	jmp    103dc8 <number+0x1b4>

00103e2d <vsprintf>:
  103e2d:	55                   	push   %ebp
  103e2e:	89 e5                	mov    %esp,%ebp
  103e30:	57                   	push   %edi
  103e31:	56                   	push   %esi
  103e32:	53                   	push   %ebx
  103e33:	83 ec 4c             	sub    $0x4c,%esp
  103e36:	8b 7d 08             	mov    0x8(%ebp),%edi
  103e39:	8b 4d 0c             	mov    0xc(%ebp),%ecx
  103e3c:	8a 01                	mov    (%ecx),%al
  103e3e:	84 c0                	test   %al,%al
  103e40:	0f 84 a0 05 00 00    	je     1043e6 <vsprintf+0x5b9>
  103e46:	89 fb                	mov    %edi,%ebx
  103e48:	e9 55 05 00 00       	jmp    1043a2 <vsprintf+0x575>
  103e4d:	c7 45 c4 00 00 00 00 	movl   $0x0,-0x3c(%ebp)
  103e54:	eb 06                	jmp    103e5c <vsprintf+0x2f>
  103e56:	83 4d c4 10          	orl    $0x10,-0x3c(%ebp)
  103e5a:	89 f9                	mov    %edi,%ecx
  103e5c:	8d 79 01             	lea    0x1(%ecx),%edi
  103e5f:	8a 51 01             	mov    0x1(%ecx),%dl
  103e62:	8d 42 e0             	lea    -0x20(%edx),%eax
  103e65:	3c 10                	cmp    $0x10,%al
  103e67:	77 22                	ja     103e8b <vsprintf+0x5e>
  103e69:	0f b6 f0             	movzbl %al,%esi
  103e6c:	ff 24 b5 28 53 10 00 	jmp    *0x105328(,%esi,4)
  103e73:	83 4d c4 04          	orl    $0x4,-0x3c(%ebp)
  103e77:	eb e1                	jmp    103e5a <vsprintf+0x2d>
  103e79:	83 4d c4 08          	orl    $0x8,-0x3c(%ebp)
  103e7d:	eb db                	jmp    103e5a <vsprintf+0x2d>
  103e7f:	83 4d c4 20          	orl    $0x20,-0x3c(%ebp)
  103e83:	eb d5                	jmp    103e5a <vsprintf+0x2d>
  103e85:	83 4d c4 01          	orl    $0x1,-0x3c(%ebp)
  103e89:	eb cf                	jmp    103e5a <vsprintf+0x2d>
  103e8b:	88 55 c0             	mov    %dl,-0x40(%ebp)
  103e8e:	89 f8                	mov    %edi,%eax
  103e90:	8d 72 d0             	lea    -0x30(%edx),%esi
  103e93:	89 f2                	mov    %esi,%edx
  103e95:	80 fa 09             	cmp    $0x9,%dl
  103e98:	76 3d                	jbe    103ed7 <vsprintf+0xaa>
  103e9a:	80 7d c0 2a          	cmpb   $0x2a,-0x40(%ebp)
  103e9e:	74 58                	je     103ef8 <vsprintf+0xcb>
  103ea0:	bf ff ff ff ff       	mov    $0xffffffff,%edi
  103ea5:	80 38 2e             	cmpb   $0x2e,(%eax)
  103ea8:	74 6d                	je     103f17 <vsprintf+0xea>
  103eaa:	c7 45 c0 ff ff ff ff 	movl   $0xffffffff,-0x40(%ebp)
  103eb1:	8a 10                	mov    (%eax),%dl
  103eb3:	88 d1                	mov    %dl,%cl
  103eb5:	83 e1 df             	and    $0xffffffdf,%ecx
  103eb8:	80 f9 4c             	cmp    $0x4c,%cl
  103ebb:	0f 84 d1 00 00 00    	je     103f92 <vsprintf+0x165>
  103ec1:	8d 4a bf             	lea    -0x41(%edx),%ecx
  103ec4:	80 f9 37             	cmp    $0x37,%cl
  103ec7:	0f 87 6a 04 00 00    	ja     104337 <vsprintf+0x50a>
  103ecd:	0f b6 c9             	movzbl %cl,%ecx
  103ed0:	ff 24 8d 6c 53 10 00 	jmp    *0x10536c(,%ecx,4)
  103ed7:	bf 00 00 00 00       	mov    $0x0,%edi
  103edc:	8a 55 c0             	mov    -0x40(%ebp),%dl
  103edf:	40                   	inc    %eax
  103ee0:	8d 0c bf             	lea    (%edi,%edi,4),%ecx
  103ee3:	01 c9                	add    %ecx,%ecx
  103ee5:	0f be d2             	movsbl %dl,%edx
  103ee8:	8d 7c 11 d0          	lea    -0x30(%ecx,%edx,1),%edi
  103eec:	8a 10                	mov    (%eax),%dl
  103eee:	8d 4a d0             	lea    -0x30(%edx),%ecx
  103ef1:	80 f9 09             	cmp    $0x9,%cl
  103ef4:	76 e9                	jbe    103edf <vsprintf+0xb2>
  103ef6:	eb ad                	jmp    103ea5 <vsprintf+0x78>
  103ef8:	8d 41 02             	lea    0x2(%ecx),%eax
  103efb:	8b 75 10             	mov    0x10(%ebp),%esi
  103efe:	8d 56 04             	lea    0x4(%esi),%edx
  103f01:	8b 3e                	mov    (%esi),%edi
  103f03:	85 ff                	test   %edi,%edi
  103f05:	78 05                	js     103f0c <vsprintf+0xdf>
  103f07:	89 55 10             	mov    %edx,0x10(%ebp)
  103f0a:	eb 99                	jmp    103ea5 <vsprintf+0x78>
  103f0c:	f7 df                	neg    %edi
  103f0e:	83 4d c4 10          	orl    $0x10,-0x3c(%ebp)
  103f12:	89 55 10             	mov    %edx,0x10(%ebp)
  103f15:	eb 8e                	jmp    103ea5 <vsprintf+0x78>
  103f17:	8d 70 01             	lea    0x1(%eax),%esi
  103f1a:	89 75 bc             	mov    %esi,-0x44(%ebp)
  103f1d:	8a 50 01             	mov    0x1(%eax),%dl
  103f20:	8d 72 d0             	lea    -0x30(%edx),%esi
  103f23:	89 f1                	mov    %esi,%ecx
  103f25:	80 f9 09             	cmp    $0x9,%cl
  103f28:	76 14                	jbe    103f3e <vsprintf+0x111>
  103f2a:	80 fa 2a             	cmp    $0x2a,%dl
  103f2d:	74 44                	je     103f73 <vsprintf+0x146>
  103f2f:	8b 45 bc             	mov    -0x44(%ebp),%eax
  103f32:	c7 45 c0 00 00 00 00 	movl   $0x0,-0x40(%ebp)
  103f39:	e9 73 ff ff ff       	jmp    103eb1 <vsprintf+0x84>
  103f3e:	b8 00 00 00 00       	mov    $0x0,%eax
  103f43:	89 de                	mov    %ebx,%esi
  103f45:	8b 4d bc             	mov    -0x44(%ebp),%ecx
  103f48:	41                   	inc    %ecx
  103f49:	8d 04 80             	lea    (%eax,%eax,4),%eax
  103f4c:	01 c0                	add    %eax,%eax
  103f4e:	0f be d2             	movsbl %dl,%edx
  103f51:	8d 44 10 d0          	lea    -0x30(%eax,%edx,1),%eax
  103f55:	8a 11                	mov    (%ecx),%dl
  103f57:	8d 5a d0             	lea    -0x30(%edx),%ebx
  103f5a:	80 fb 09             	cmp    $0x9,%bl
  103f5d:	76 e9                	jbe    103f48 <vsprintf+0x11b>
  103f5f:	89 f3                	mov    %esi,%ebx
  103f61:	89 4d bc             	mov    %ecx,-0x44(%ebp)
  103f64:	89 45 c0             	mov    %eax,-0x40(%ebp)
  103f67:	85 c0                	test   %eax,%eax
  103f69:	78 1e                	js     103f89 <vsprintf+0x15c>
  103f6b:	8b 45 bc             	mov    -0x44(%ebp),%eax
  103f6e:	e9 3e ff ff ff       	jmp    103eb1 <vsprintf+0x84>
  103f73:	83 c0 02             	add    $0x2,%eax
  103f76:	89 45 bc             	mov    %eax,-0x44(%ebp)
  103f79:	8b 45 10             	mov    0x10(%ebp),%eax
  103f7c:	8b 00                	mov    (%eax),%eax
  103f7e:	8b 75 10             	mov    0x10(%ebp),%esi
  103f81:	8d 76 04             	lea    0x4(%esi),%esi
  103f84:	89 75 10             	mov    %esi,0x10(%ebp)
  103f87:	eb db                	jmp    103f64 <vsprintf+0x137>
  103f89:	c7 45 c0 00 00 00 00 	movl   $0x0,-0x40(%ebp)
  103f90:	eb d9                	jmp    103f6b <vsprintf+0x13e>
  103f92:	0f be ca             	movsbl %dl,%ecx
  103f95:	8d 70 01             	lea    0x1(%eax),%esi
  103f98:	8a 50 01             	mov    0x1(%eax),%dl
  103f9b:	8d 42 bf             	lea    -0x41(%edx),%eax
  103f9e:	3c 37                	cmp    $0x37,%al
  103fa0:	0f 87 93 03 00 00    	ja     104339 <vsprintf+0x50c>
  103fa6:	0f b6 c0             	movzbl %al,%eax
  103fa9:	ff 24 85 4c 54 10 00 	jmp    *0x10544c(,%eax,4)
  103fb0:	89 c6                	mov    %eax,%esi
  103fb2:	b9 ff ff ff ff       	mov    $0xffffffff,%ecx
  103fb7:	b8 10 00 00 00       	mov    $0x10,%eax
  103fbc:	83 f9 6c             	cmp    $0x6c,%ecx
  103fbf:	0f 84 ad 03 00 00    	je     104372 <vsprintf+0x545>
  103fc5:	f6 45 c4 02          	testb  $0x2,-0x3c(%ebp)
  103fc9:	0f 84 e4 03 00 00    	je     1043b3 <vsprintf+0x586>
  103fcf:	8b 55 10             	mov    0x10(%ebp),%edx
  103fd2:	8b 12                	mov    (%edx),%edx
  103fd4:	8b 4d 10             	mov    0x10(%ebp),%ecx
  103fd7:	8d 49 04             	lea    0x4(%ecx),%ecx
  103fda:	89 4d 10             	mov    %ecx,0x10(%ebp)
  103fdd:	e9 9e 03 00 00       	jmp    104380 <vsprintf+0x553>
  103fe2:	89 c6                	mov    %eax,%esi
  103fe4:	8b 55 c4             	mov    -0x3c(%ebp),%edx
  103fe7:	83 e2 10             	and    $0x10,%edx
  103fea:	74 30                	je     10401c <vsprintf+0x1ef>
  103fec:	8b 45 10             	mov    0x10(%ebp),%eax
  103fef:	8d 50 04             	lea    0x4(%eax),%edx
  103ff2:	8d 43 01             	lea    0x1(%ebx),%eax
  103ff5:	8b 4d 10             	mov    0x10(%ebp),%ecx
  103ff8:	8b 09                	mov    (%ecx),%ecx
  103ffa:	88 0b                	mov    %cl,(%ebx)
  103ffc:	83 ff 01             	cmp    $0x1,%edi
  103fff:	0f 8e be 03 00 00    	jle    1043c3 <vsprintf+0x596>
  104005:	89 f9                	mov    %edi,%ecx
  104007:	01 df                	add    %ebx,%edi
  104009:	40                   	inc    %eax
  10400a:	c6 40 ff 20          	movb   $0x20,-0x1(%eax)
  10400e:	39 f8                	cmp    %edi,%eax
  104010:	75 f7                	jne    104009 <vsprintf+0x1dc>
  104012:	01 cb                	add    %ecx,%ebx
  104014:	89 55 10             	mov    %edx,0x10(%ebp)
  104017:	e9 7c 03 00 00       	jmp    104398 <vsprintf+0x56b>
  10401c:	8d 47 ff             	lea    -0x1(%edi),%eax
  10401f:	85 c0                	test   %eax,%eax
  104021:	7e 13                	jle    104036 <vsprintf+0x209>
  104023:	8d 44 3b ff          	lea    -0x1(%ebx,%edi,1),%eax
  104027:	43                   	inc    %ebx
  104028:	c6 43 ff 20          	movb   $0x20,-0x1(%ebx)
  10402c:	39 c3                	cmp    %eax,%ebx
  10402e:	75 f7                	jne    104027 <vsprintf+0x1fa>
  104030:	89 d7                	mov    %edx,%edi
  104032:	89 c3                	mov    %eax,%ebx
  104034:	eb b6                	jmp    103fec <vsprintf+0x1bf>
  104036:	89 c7                	mov    %eax,%edi
  104038:	eb b2                	jmp    103fec <vsprintf+0x1bf>
  10403a:	89 c6                	mov    %eax,%esi
  10403c:	8b 45 10             	mov    0x10(%ebp),%eax
  10403f:	83 c0 04             	add    $0x4,%eax
  104042:	89 45 b8             	mov    %eax,-0x48(%ebp)
  104045:	8b 45 10             	mov    0x10(%ebp),%eax
  104048:	8b 00                	mov    (%eax),%eax
  10404a:	89 45 bc             	mov    %eax,-0x44(%ebp)
  10404d:	85 c0                	test   %eax,%eax
  10404f:	74 53                	je     1040a4 <vsprintf+0x277>
  104051:	83 ec 08             	sub    $0x8,%esp
  104054:	ff 75 c0             	push   -0x40(%ebp)
  104057:	ff 75 bc             	push   -0x44(%ebp)
  10405a:	e8 3d 05 00 00       	call   10459c <strnlen>
  10405f:	83 c4 10             	add    $0x10,%esp
  104062:	f6 45 c4 10          	testb  $0x10,-0x3c(%ebp)
  104066:	74 45                	je     1040ad <vsprintf+0x280>
  104068:	85 c0                	test   %eax,%eax
  10406a:	7e 6c                	jle    1040d8 <vsprintf+0x2ab>
  10406c:	8b 4d bc             	mov    -0x44(%ebp),%ecx
  10406f:	8d 14 03             	lea    (%ebx,%eax,1),%edx
  104072:	89 45 c4             	mov    %eax,-0x3c(%ebp)
  104075:	43                   	inc    %ebx
  104076:	8a 01                	mov    (%ecx),%al
  104078:	88 43 ff             	mov    %al,-0x1(%ebx)
  10407b:	41                   	inc    %ecx
  10407c:	39 d3                	cmp    %edx,%ebx
  10407e:	75 f5                	jne    104075 <vsprintf+0x248>
  104080:	8b 45 c4             	mov    -0x3c(%ebp),%eax
  104083:	39 c7                	cmp    %eax,%edi
  104085:	0f 8e 3f 03 00 00    	jle    1043ca <vsprintf+0x59d>
  10408b:	29 c7                	sub    %eax,%edi
  10408d:	8d 1c 3a             	lea    (%edx,%edi,1),%ebx
  104090:	42                   	inc    %edx
  104091:	c6 42 ff 20          	movb   $0x20,-0x1(%edx)
  104095:	39 da                	cmp    %ebx,%edx
  104097:	75 f7                	jne    104090 <vsprintf+0x263>
  104099:	8b 45 b8             	mov    -0x48(%ebp),%eax
  10409c:	89 45 10             	mov    %eax,0x10(%ebp)
  10409f:	e9 f4 02 00 00       	jmp    104398 <vsprintf+0x56b>
  1040a4:	c7 45 bc 21 53 10 00 	movl   $0x105321,-0x44(%ebp)
  1040ab:	eb a4                	jmp    104051 <vsprintf+0x224>
  1040ad:	8d 4f ff             	lea    -0x1(%edi),%ecx
  1040b0:	39 c7                	cmp    %eax,%edi
  1040b2:	7e 20                	jle    1040d4 <vsprintf+0x2a7>
  1040b4:	89 7d c4             	mov    %edi,-0x3c(%ebp)
  1040b7:	29 c7                	sub    %eax,%edi
  1040b9:	89 fa                	mov    %edi,%edx
  1040bb:	01 da                	add    %ebx,%edx
  1040bd:	43                   	inc    %ebx
  1040be:	c6 43 ff 20          	movb   $0x20,-0x1(%ebx)
  1040c2:	39 d3                	cmp    %edx,%ebx
  1040c4:	75 f7                	jne    1040bd <vsprintf+0x290>
  1040c6:	89 c3                	mov    %eax,%ebx
  1040c8:	8b 7d c4             	mov    -0x3c(%ebp),%edi
  1040cb:	29 fb                	sub    %edi,%ebx
  1040cd:	8d 3c 0b             	lea    (%ebx,%ecx,1),%edi
  1040d0:	89 d3                	mov    %edx,%ebx
  1040d2:	eb 94                	jmp    104068 <vsprintf+0x23b>
  1040d4:	89 cf                	mov    %ecx,%edi
  1040d6:	eb 90                	jmp    104068 <vsprintf+0x23b>
  1040d8:	89 da                	mov    %ebx,%edx
  1040da:	eb a7                	jmp    104083 <vsprintf+0x256>
  1040dc:	89 c6                	mov    %eax,%esi
  1040de:	83 ff ff             	cmp    $0xffffffff,%edi
  1040e1:	74 34                	je     104117 <vsprintf+0x2ea>
  1040e3:	8b 45 10             	mov    0x10(%ebp),%eax
  1040e6:	83 c0 04             	add    $0x4,%eax
  1040e9:	89 45 bc             	mov    %eax,-0x44(%ebp)
  1040ec:	8b 55 10             	mov    0x10(%ebp),%edx
  1040ef:	8b 12                	mov    (%edx),%edx
  1040f1:	83 ec 04             	sub    $0x4,%esp
  1040f4:	ff 75 c4             	push   -0x3c(%ebp)
  1040f7:	ff 75 c0             	push   -0x40(%ebp)
  1040fa:	57                   	push   %edi
  1040fb:	b9 10 00 00 00       	mov    $0x10,%ecx
  104100:	89 d8                	mov    %ebx,%eax
  104102:	e8 0d fb ff ff       	call   103c14 <number>
  104107:	89 c3                	mov    %eax,%ebx
  104109:	83 c4 10             	add    $0x10,%esp
  10410c:	8b 45 bc             	mov    -0x44(%ebp),%eax
  10410f:	89 45 10             	mov    %eax,0x10(%ebp)
  104112:	e9 81 02 00 00       	jmp    104398 <vsprintf+0x56b>
  104117:	83 4d c4 01          	orl    $0x1,-0x3c(%ebp)
  10411b:	bf 08 00 00 00       	mov    $0x8,%edi
  104120:	eb c1                	jmp    1040e3 <vsprintf+0x2b6>
  104122:	89 c6                	mov    %eax,%esi
  104124:	b9 ff ff ff ff       	mov    $0xffffffff,%ecx
  104129:	83 4d c4 40          	orl    $0x40,-0x3c(%ebp)
  10412d:	83 f9 6c             	cmp    $0x6c,%ecx
  104130:	74 2a                	je     10415c <vsprintf+0x32f>
  104132:	8b 45 10             	mov    0x10(%ebp),%eax
  104135:	83 c0 04             	add    $0x4,%eax
  104138:	89 45 b8             	mov    %eax,-0x48(%ebp)
  10413b:	8b 45 10             	mov    0x10(%ebp),%eax
  10413e:	8b 00                	mov    (%eax),%eax
  104140:	89 45 bc             	mov    %eax,-0x44(%ebp)
  104143:	c7 45 c0 00 00 00 00 	movl   $0x0,-0x40(%ebp)
  10414a:	b8 00 00 00 00       	mov    $0x0,%eax
  10414f:	89 5d b4             	mov    %ebx,-0x4c(%ebp)
  104152:	89 75 b0             	mov    %esi,-0x50(%ebp)
  104155:	89 c3                	mov    %eax,%ebx
  104157:	e9 e0 00 00 00       	jmp    10423c <vsprintf+0x40f>
  10415c:	8b 45 10             	mov    0x10(%ebp),%eax
  10415f:	8d 50 04             	lea    0x4(%eax),%edx
  104162:	8b 00                	mov    (%eax),%eax
  104164:	89 45 b4             	mov    %eax,-0x4c(%ebp)
  104167:	f6 45 c4 40          	testb  $0x40,-0x3c(%ebp)
  10416b:	75 20                	jne    10418d <vsprintf+0x360>
  10416d:	b8 d4 52 10 00       	mov    $0x1052d4,%eax
  104172:	b9 00 00 00 00       	mov    $0x0,%ecx
  104177:	c7 45 c0 00 00 00 00 	movl   $0x0,-0x40(%ebp)
  10417e:	89 7d b0             	mov    %edi,-0x50(%ebp)
  104181:	89 df                	mov    %ebx,%edi
  104183:	89 55 ac             	mov    %edx,-0x54(%ebp)
  104186:	89 ca                	mov    %ecx,%edx
  104188:	e9 9c 02 00 00       	jmp    104429 <vsprintf+0x5fc>
  10418d:	b8 fc 52 10 00       	mov    $0x1052fc,%eax
  104192:	eb de                	jmp    104172 <vsprintf+0x345>
  104194:	8b 7d c4             	mov    -0x3c(%ebp),%edi
  104197:	e9 13 03 00 00       	jmp    1044af <vsprintf+0x682>
  10419c:	89 d8                	mov    %ebx,%eax
  10419e:	e9 33 03 00 00       	jmp    1044d6 <vsprintf+0x6a9>
  1041a3:	89 c3                	mov    %eax,%ebx
  1041a5:	e9 45 03 00 00       	jmp    1044ef <vsprintf+0x6c2>
  1041aa:	89 c6                	mov    %eax,%esi
  1041ac:	eb 84                	jmp    104132 <vsprintf+0x305>
  1041ae:	89 c3                	mov    %eax,%ebx
  1041b0:	e9 87 00 00 00       	jmp    10423c <vsprintf+0x40f>
  1041b5:	83 f9 63             	cmp    $0x63,%ecx
  1041b8:	0f 8e 9a 00 00 00    	jle    104258 <vsprintf+0x42b>
  1041be:	8d 43 01             	lea    0x1(%ebx),%eax
  1041c1:	89 c6                	mov    %eax,%esi
  1041c3:	b8 1f 85 eb 51       	mov    $0x51eb851f,%eax
  1041c8:	f7 e9                	imul   %ecx
  1041ca:	89 d0                	mov    %edx,%eax
  1041cc:	c1 f8 05             	sar    $0x5,%eax
  1041cf:	89 ca                	mov    %ecx,%edx
  1041d1:	c1 fa 1f             	sar    $0x1f,%edx
  1041d4:	29 d0                	sub    %edx,%eax
  1041d6:	8a 90 d4 52 10 00    	mov    0x1052d4(%eax),%dl
  1041dc:	88 54 1d d0          	mov    %dl,-0x30(%ebp,%ebx,1)
  1041e0:	8d 04 80             	lea    (%eax,%eax,4),%eax
  1041e3:	8d 04 80             	lea    (%eax,%eax,4),%eax
  1041e6:	c1 e0 02             	shl    $0x2,%eax
  1041e9:	29 c1                	sub    %eax,%ecx
  1041eb:	83 c3 02             	add    $0x2,%ebx
  1041ee:	b8 67 66 66 66       	mov    $0x66666667,%eax
  1041f3:	f7 e9                	imul   %ecx
  1041f5:	89 d0                	mov    %edx,%eax
  1041f7:	c1 f8 02             	sar    $0x2,%eax
  1041fa:	89 ca                	mov    %ecx,%edx
  1041fc:	c1 fa 1f             	sar    $0x1f,%edx
  1041ff:	29 d0                	sub    %edx,%eax
  104201:	8a 90 d4 52 10 00    	mov    0x1052d4(%eax),%dl
  104207:	88 54 35 d0          	mov    %dl,-0x30(%ebp,%esi,1)
  10420b:	8d 04 80             	lea    (%eax,%eax,4),%eax
  10420e:	01 c0                	add    %eax,%eax
  104210:	29 c1                	sub    %eax,%ecx
  104212:	8d 43 01             	lea    0x1(%ebx),%eax
  104215:	8a 91 d4 52 10 00    	mov    0x1052d4(%ecx),%dl
  10421b:	88 54 1d d0          	mov    %dl,-0x30(%ebp,%ebx,1)
  10421f:	ff 45 c0             	incl   -0x40(%ebp)
  104222:	8b 5d c0             	mov    -0x40(%ebp),%ebx
  104225:	83 fb 04             	cmp    $0x4,%ebx
  104228:	74 5c                	je     104286 <vsprintf+0x459>
  10422a:	83 7d c0 00          	cmpl   $0x0,-0x40(%ebp)
  10422e:	0f 84 7a ff ff ff    	je     1041ae <vsprintf+0x381>
  104234:	8d 58 01             	lea    0x1(%eax),%ebx
  104237:	c6 44 05 d0 2e       	movb   $0x2e,-0x30(%ebp,%eax,1)
  10423c:	8b 45 bc             	mov    -0x44(%ebp),%eax
  10423f:	8b 55 c0             	mov    -0x40(%ebp),%edx
  104242:	0f b6 0c 10          	movzbl (%eax,%edx,1),%ecx
  104246:	85 c9                	test   %ecx,%ecx
  104248:	0f 85 67 ff ff ff    	jne    1041b5 <vsprintf+0x388>
  10424e:	8d 43 01             	lea    0x1(%ebx),%eax
  104251:	c6 44 1d d0 30       	movb   $0x30,-0x30(%ebp,%ebx,1)
  104256:	eb c7                	jmp    10421f <vsprintf+0x3f2>
  104258:	83 f9 09             	cmp    $0x9,%ecx
  10425b:	7e b5                	jle    104212 <vsprintf+0x3e5>
  10425d:	b8 67 66 66 66       	mov    $0x66666667,%eax
  104262:	f7 e9                	imul   %ecx
  104264:	89 d0                	mov    %edx,%eax
  104266:	c1 f8 02             	sar    $0x2,%eax
  104269:	89 ca                	mov    %ecx,%edx
  10426b:	c1 fa 1f             	sar    $0x1f,%edx
  10426e:	29 d0                	sub    %edx,%eax
  104270:	8a 90 d4 52 10 00    	mov    0x1052d4(%eax),%dl
  104276:	88 54 1d d0          	mov    %dl,-0x30(%ebp,%ebx,1)
  10427a:	8d 04 80             	lea    (%eax,%eax,4),%eax
  10427d:	01 c0                	add    %eax,%eax
  10427f:	29 c1                	sub    %eax,%ecx
  104281:	8d 5b 01             	lea    0x1(%ebx),%ebx
  104284:	eb 8c                	jmp    104212 <vsprintf+0x3e5>
  104286:	8b 5d b4             	mov    -0x4c(%ebp),%ebx
  104289:	8b 75 b0             	mov    -0x50(%ebp),%esi
  10428c:	f6 45 c4 10          	testb  $0x10,-0x3c(%ebp)
  104290:	75 29                	jne    1042bb <vsprintf+0x48e>
  104292:	8d 4f ff             	lea    -0x1(%edi),%ecx
  104295:	39 c7                	cmp    %eax,%edi
  104297:	7e 57                	jle    1042f0 <vsprintf+0x4c3>
  104299:	89 7d c0             	mov    %edi,-0x40(%ebp)
  10429c:	89 45 c4             	mov    %eax,-0x3c(%ebp)
  10429f:	29 c7                	sub    %eax,%edi
  1042a1:	89 fa                	mov    %edi,%edx
  1042a3:	01 da                	add    %ebx,%edx
  1042a5:	43                   	inc    %ebx
  1042a6:	c6 43 ff 20          	movb   $0x20,-0x1(%ebx)
  1042aa:	39 d3                	cmp    %edx,%ebx
  1042ac:	75 f7                	jne    1042a5 <vsprintf+0x478>
  1042ae:	8b 5d c4             	mov    -0x3c(%ebp),%ebx
  1042b1:	8b 7d c0             	mov    -0x40(%ebp),%edi
  1042b4:	29 fb                	sub    %edi,%ebx
  1042b6:	8d 3c 0b             	lea    (%ebx,%ecx,1),%edi
  1042b9:	89 d3                	mov    %edx,%ebx
  1042bb:	85 c0                	test   %eax,%eax
  1042bd:	7e 35                	jle    1042f4 <vsprintf+0x4c7>
  1042bf:	ba 00 00 00 00       	mov    $0x0,%edx
  1042c4:	8a 4c 15 d0          	mov    -0x30(%ebp,%edx,1),%cl
  1042c8:	88 0c 13             	mov    %cl,(%ebx,%edx,1)
  1042cb:	42                   	inc    %edx
  1042cc:	39 c2                	cmp    %eax,%edx
  1042ce:	75 f4                	jne    1042c4 <vsprintf+0x497>
  1042d0:	8d 14 03             	lea    (%ebx,%eax,1),%edx
  1042d3:	39 f8                	cmp    %edi,%eax
  1042d5:	7d 21                	jge    1042f8 <vsprintf+0x4cb>
  1042d7:	29 c7                	sub    %eax,%edi
  1042d9:	8d 1c 3a             	lea    (%edx,%edi,1),%ebx
  1042dc:	42                   	inc    %edx
  1042dd:	c6 42 ff 20          	movb   $0x20,-0x1(%edx)
  1042e1:	39 d3                	cmp    %edx,%ebx
  1042e3:	75 f7                	jne    1042dc <vsprintf+0x4af>
  1042e5:	8b 45 b8             	mov    -0x48(%ebp),%eax
  1042e8:	89 45 10             	mov    %eax,0x10(%ebp)
  1042eb:	e9 a8 00 00 00       	jmp    104398 <vsprintf+0x56b>
  1042f0:	89 cf                	mov    %ecx,%edi
  1042f2:	eb c7                	jmp    1042bb <vsprintf+0x48e>
  1042f4:	89 da                	mov    %ebx,%edx
  1042f6:	eb db                	jmp    1042d3 <vsprintf+0x4a6>
  1042f8:	89 d3                	mov    %edx,%ebx
  1042fa:	eb e9                	jmp    1042e5 <vsprintf+0x4b8>
  1042fc:	89 c6                	mov    %eax,%esi
  1042fe:	b9 ff ff ff ff       	mov    $0xffffffff,%ecx
  104303:	b8 08 00 00 00       	mov    $0x8,%eax
  104308:	e9 af fc ff ff       	jmp    103fbc <vsprintf+0x18f>
  10430d:	89 c6                	mov    %eax,%esi
  10430f:	b9 ff ff ff ff       	mov    $0xffffffff,%ecx
  104314:	83 4d c4 40          	orl    $0x40,-0x3c(%ebp)
  104318:	b8 10 00 00 00       	mov    $0x10,%eax
  10431d:	e9 9a fc ff ff       	jmp    103fbc <vsprintf+0x18f>
  104322:	89 c6                	mov    %eax,%esi
  104324:	b9 ff ff ff ff       	mov    $0xffffffff,%ecx
  104329:	83 4d c4 02          	orl    $0x2,-0x3c(%ebp)
  10432d:	b8 0a 00 00 00       	mov    $0xa,%eax
  104332:	e9 85 fc ff ff       	jmp    103fbc <vsprintf+0x18f>
  104337:	89 c6                	mov    %eax,%esi
  104339:	80 fa 25             	cmp    $0x25,%dl
  10433c:	0f 84 a8 00 00 00    	je     1043ea <vsprintf+0x5bd>
  104342:	8d 43 01             	lea    0x1(%ebx),%eax
  104345:	c6 03 25             	movb   $0x25,(%ebx)
  104348:	8a 16                	mov    (%esi),%dl
  10434a:	84 d2                	test   %dl,%dl
  10434c:	0f 85 9c 00 00 00    	jne    1043ee <vsprintf+0x5c1>
  104352:	4e                   	dec    %esi
  104353:	89 c3                	mov    %eax,%ebx
  104355:	eb 41                	jmp    104398 <vsprintf+0x56b>
  104357:	b8 0a 00 00 00       	mov    $0xa,%eax
  10435c:	e9 5b fc ff ff       	jmp    103fbc <vsprintf+0x18f>
  104361:	89 c6                	mov    %eax,%esi
  104363:	b9 ff ff ff ff       	mov    $0xffffffff,%ecx
  104368:	b8 0a 00 00 00       	mov    $0xa,%eax
  10436d:	e9 4a fc ff ff       	jmp    103fbc <vsprintf+0x18f>
  104372:	8b 55 10             	mov    0x10(%ebp),%edx
  104375:	8b 12                	mov    (%edx),%edx
  104377:	8b 4d 10             	mov    0x10(%ebp),%ecx
  10437a:	8d 49 04             	lea    0x4(%ecx),%ecx
  10437d:	89 4d 10             	mov    %ecx,0x10(%ebp)
  104380:	83 ec 04             	sub    $0x4,%esp
  104383:	ff 75 c4             	push   -0x3c(%ebp)
  104386:	ff 75 c0             	push   -0x40(%ebp)
  104389:	57                   	push   %edi
  10438a:	89 c1                	mov    %eax,%ecx
  10438c:	89 d8                	mov    %ebx,%eax
  10438e:	e8 81 f8 ff ff       	call   103c14 <number>
  104393:	89 c3                	mov    %eax,%ebx
  104395:	83 c4 10             	add    $0x10,%esp
  104398:	8d 4e 01             	lea    0x1(%esi),%ecx
  10439b:	8a 46 01             	mov    0x1(%esi),%al
  10439e:	84 c0                	test   %al,%al
  1043a0:	74 32                	je     1043d4 <vsprintf+0x5a7>
  1043a2:	3c 25                	cmp    $0x25,%al
  1043a4:	0f 84 a3 fa ff ff    	je     103e4d <vsprintf+0x20>
  1043aa:	88 03                	mov    %al,(%ebx)
  1043ac:	89 ce                	mov    %ecx,%esi
  1043ae:	8d 5b 01             	lea    0x1(%ebx),%ebx
  1043b1:	eb e5                	jmp    104398 <vsprintf+0x56b>
  1043b3:	8b 55 10             	mov    0x10(%ebp),%edx
  1043b6:	8b 12                	mov    (%edx),%edx
  1043b8:	8b 4d 10             	mov    0x10(%ebp),%ecx
  1043bb:	8d 49 04             	lea    0x4(%ecx),%ecx
  1043be:	89 4d 10             	mov    %ecx,0x10(%ebp)
  1043c1:	eb bd                	jmp    104380 <vsprintf+0x553>
  1043c3:	89 55 10             	mov    %edx,0x10(%ebp)
  1043c6:	89 c3                	mov    %eax,%ebx
  1043c8:	eb ce                	jmp    104398 <vsprintf+0x56b>
  1043ca:	8b 45 b8             	mov    -0x48(%ebp),%eax
  1043cd:	89 45 10             	mov    %eax,0x10(%ebp)
  1043d0:	89 d3                	mov    %edx,%ebx
  1043d2:	eb c4                	jmp    104398 <vsprintf+0x56b>
  1043d4:	89 d8                	mov    %ebx,%eax
  1043d6:	8b 7d 08             	mov    0x8(%ebp),%edi
  1043d9:	c6 00 00             	movb   $0x0,(%eax)
  1043dc:	29 f8                	sub    %edi,%eax
  1043de:	8d 65 f4             	lea    -0xc(%ebp),%esp
  1043e1:	5b                   	pop    %ebx
  1043e2:	5e                   	pop    %esi
  1043e3:	5f                   	pop    %edi
  1043e4:	5d                   	pop    %ebp
  1043e5:	c3                   	ret    
  1043e6:	89 f8                	mov    %edi,%eax
  1043e8:	eb ef                	jmp    1043d9 <vsprintf+0x5ac>
  1043ea:	8a 16                	mov    (%esi),%dl
  1043ec:	89 d8                	mov    %ebx,%eax
  1043ee:	8d 58 01             	lea    0x1(%eax),%ebx
  1043f1:	88 10                	mov    %dl,(%eax)
  1043f3:	eb a3                	jmp    104398 <vsprintf+0x56b>
  1043f5:	8b 4d b4             	mov    -0x4c(%ebp),%ecx
  1043f8:	8b 5d c0             	mov    -0x40(%ebp),%ebx
  1043fb:	8a 1c 19             	mov    (%ecx,%ebx,1),%bl
  1043fe:	8d 4a 01             	lea    0x1(%edx),%ecx
  104401:	89 4d bc             	mov    %ecx,-0x44(%ebp)
  104404:	88 d9                	mov    %bl,%cl
  104406:	c0 e9 04             	shr    $0x4,%cl
  104409:	0f b6 c9             	movzbl %cl,%ecx
  10440c:	8a 0c 08             	mov    (%eax,%ecx,1),%cl
  10440f:	88 4c 15 d0          	mov    %cl,-0x30(%ebp,%edx,1)
  104413:	83 c2 02             	add    $0x2,%edx
  104416:	83 e3 0f             	and    $0xf,%ebx
  104419:	8a 1c 18             	mov    (%eax,%ebx,1),%bl
  10441c:	88 5d b8             	mov    %bl,-0x48(%ebp)
  10441f:	8b 4d bc             	mov    -0x44(%ebp),%ecx
  104422:	88 5c 0d d0          	mov    %bl,-0x30(%ebp,%ecx,1)
  104426:	ff 45 c0             	incl   -0x40(%ebp)
  104429:	8b 5d c0             	mov    -0x40(%ebp),%ebx
  10442c:	85 db                	test   %ebx,%ebx
  10442e:	74 c5                	je     1043f5 <vsprintf+0x5c8>
  104430:	c6 44 15 d0 3a       	movb   $0x3a,-0x30(%ebp,%edx,1)
  104435:	8b 4d b4             	mov    -0x4c(%ebp),%ecx
  104438:	8a 0c 19             	mov    (%ecx,%ebx,1),%cl
  10443b:	8d 5a 02             	lea    0x2(%edx),%ebx
  10443e:	89 5d bc             	mov    %ebx,-0x44(%ebp)
  104441:	88 cb                	mov    %cl,%bl
  104443:	c0 eb 04             	shr    $0x4,%bl
  104446:	0f b6 db             	movzbl %bl,%ebx
  104449:	8a 1c 18             	mov    (%eax,%ebx,1),%bl
  10444c:	88 5c 15 d1          	mov    %bl,-0x2f(%ebp,%edx,1)
  104450:	83 c2 03             	add    $0x3,%edx
  104453:	83 e1 0f             	and    $0xf,%ecx
  104456:	8a 1c 08             	mov    (%eax,%ecx,1),%bl
  104459:	88 5d b8             	mov    %bl,-0x48(%ebp)
  10445c:	8b 4d bc             	mov    -0x44(%ebp),%ecx
  10445f:	88 5c 0d d0          	mov    %bl,-0x30(%ebp,%ecx,1)
  104463:	ff 45 c0             	incl   -0x40(%ebp)
  104466:	8b 5d c0             	mov    -0x40(%ebp),%ebx
  104469:	83 fb 06             	cmp    $0x6,%ebx
  10446c:	75 bb                	jne    104429 <vsprintf+0x5fc>
  10446e:	89 fb                	mov    %edi,%ebx
  104470:	8b 7d b0             	mov    -0x50(%ebp),%edi
  104473:	89 d0                	mov    %edx,%eax
  104475:	89 55 c0             	mov    %edx,-0x40(%ebp)
  104478:	8b 55 ac             	mov    -0x54(%ebp),%edx
  10447b:	f6 45 c4 10          	testb  $0x10,-0x3c(%ebp)
  10447f:	75 2e                	jne    1044af <vsprintf+0x682>
  104481:	8d 4f ff             	lea    -0x1(%edi),%ecx
  104484:	89 4d c4             	mov    %ecx,-0x3c(%ebp)
  104487:	39 c7                	cmp    %eax,%edi
  104489:	0f 8e 05 fd ff ff    	jle    104194 <vsprintf+0x367>
  10448f:	89 7d bc             	mov    %edi,-0x44(%ebp)
  104492:	89 c1                	mov    %eax,%ecx
  104494:	29 c7                	sub    %eax,%edi
  104496:	89 f8                	mov    %edi,%eax
  104498:	01 d8                	add    %ebx,%eax
  10449a:	43                   	inc    %ebx
  10449b:	c6 43 ff 20          	movb   $0x20,-0x1(%ebx)
  10449f:	39 d8                	cmp    %ebx,%eax
  1044a1:	75 f7                	jne    10449a <vsprintf+0x66d>
  1044a3:	8b 7d bc             	mov    -0x44(%ebp),%edi
  1044a6:	29 f9                	sub    %edi,%ecx
  1044a8:	8b 7d c4             	mov    -0x3c(%ebp),%edi
  1044ab:	01 cf                	add    %ecx,%edi
  1044ad:	89 c3                	mov    %eax,%ebx
  1044af:	8b 4d c0             	mov    -0x40(%ebp),%ecx
  1044b2:	85 c9                	test   %ecx,%ecx
  1044b4:	0f 8e e2 fc ff ff    	jle    10419c <vsprintf+0x36f>
  1044ba:	b8 00 00 00 00       	mov    $0x0,%eax
  1044bf:	89 55 c4             	mov    %edx,-0x3c(%ebp)
  1044c2:	8a 54 05 d0          	mov    -0x30(%ebp,%eax,1),%dl
  1044c6:	88 14 03             	mov    %dl,(%ebx,%eax,1)
  1044c9:	40                   	inc    %eax
  1044ca:	39 c1                	cmp    %eax,%ecx
  1044cc:	75 f4                	jne    1044c2 <vsprintf+0x695>
  1044ce:	8b 55 c4             	mov    -0x3c(%ebp),%edx
  1044d1:	8b 45 c0             	mov    -0x40(%ebp),%eax
  1044d4:	01 d8                	add    %ebx,%eax
  1044d6:	8b 5d c0             	mov    -0x40(%ebp),%ebx
  1044d9:	39 fb                	cmp    %edi,%ebx
  1044db:	0f 8d c2 fc ff ff    	jge    1041a3 <vsprintf+0x376>
  1044e1:	29 df                	sub    %ebx,%edi
  1044e3:	8d 1c 38             	lea    (%eax,%edi,1),%ebx
  1044e6:	40                   	inc    %eax
  1044e7:	c6 40 ff 20          	movb   $0x20,-0x1(%eax)
  1044eb:	39 d8                	cmp    %ebx,%eax
  1044ed:	75 f7                	jne    1044e6 <vsprintf+0x6b9>
  1044ef:	89 55 10             	mov    %edx,0x10(%ebp)
  1044f2:	e9 a1 fe ff ff       	jmp    104398 <vsprintf+0x56b>

001044f7 <sprintf>:
  1044f7:	55                   	push   %ebp
  1044f8:	89 e5                	mov    %esp,%ebp
  1044fa:	83 ec 0c             	sub    $0xc,%esp
  1044fd:	8d 45 10             	lea    0x10(%ebp),%eax
  104500:	50                   	push   %eax
  104501:	ff 75 0c             	push   0xc(%ebp)
  104504:	ff 75 08             	push   0x8(%ebp)
  104507:	e8 21 f9 ff ff       	call   103e2d <vsprintf>
  10450c:	c9                   	leave  
  10450d:	c3                   	ret    

0010450e <vcprintf>:
  10450e:	55                   	push   %ebp
  10450f:	89 e5                	mov    %esp,%ebp
  104511:	56                   	push   %esi
  104512:	53                   	push   %ebx
  104513:	81 ec 04 02 00 00    	sub    $0x204,%esp
  104519:	ff 75 10             	push   0x10(%ebp)
  10451c:	ff 75 0c             	push   0xc(%ebp)
  10451f:	8d b5 f8 fd ff ff    	lea    -0x208(%ebp),%esi
  104525:	56                   	push   %esi
  104526:	e8 02 f9 ff ff       	call   103e2d <vsprintf>
  10452b:	89 c3                	mov    %eax,%ebx
  10452d:	89 34 24             	mov    %esi,(%esp)
  104530:	ff 55 08             	call   *0x8(%ebp)
  104533:	89 d8                	mov    %ebx,%eax
  104535:	8d 65 f8             	lea    -0x8(%ebp),%esp
  104538:	5b                   	pop    %ebx
  104539:	5e                   	pop    %esi
  10453a:	5d                   	pop    %ebp
  10453b:	c3                   	ret    

0010453c <cprintf>:
  10453c:	55                   	push   %ebp
  10453d:	89 e5                	mov    %esp,%ebp
  10453f:	83 ec 0c             	sub    $0xc,%esp
  104542:	8d 45 10             	lea    0x10(%ebp),%eax
  104545:	50                   	push   %eax
  104546:	ff 75 0c             	push   0xc(%ebp)
  104549:	ff 75 08             	push   0x8(%ebp)
  10454c:	e8 bd ff ff ff       	call   10450e <vcprintf>
  104551:	c9                   	leave  
  104552:	c3                   	ret    

00104553 <memset>:
  104553:	55                   	push   %ebp
  104554:	89 e5                	mov    %esp,%ebp
  104556:	53                   	push   %ebx
  104557:	8b 5d 08             	mov    0x8(%ebp),%ebx
  10455a:	8b 4d 0c             	mov    0xc(%ebp),%ecx
  10455d:	8b 55 10             	mov    0x10(%ebp),%edx
  104560:	85 d2                	test   %edx,%edx
  104562:	74 0c                	je     104570 <memset+0x1d>
  104564:	01 da                	add    %ebx,%edx
  104566:	89 d8                	mov    %ebx,%eax
  104568:	40                   	inc    %eax
  104569:	88 48 ff             	mov    %cl,-0x1(%eax)
  10456c:	39 c2                	cmp    %eax,%edx
  10456e:	75 f8                	jne    104568 <memset+0x15>
  104570:	89 d8                	mov    %ebx,%eax
  104572:	8b 5d fc             	mov    -0x4(%ebp),%ebx
  104575:	c9                   	leave  
  104576:	c3                   	ret    

00104577 <strcmp>:
  104577:	55                   	push   %ebp
  104578:	89 e5                	mov    %esp,%ebp
  10457a:	8b 4d 08             	mov    0x8(%ebp),%ecx
  10457d:	8b 55 0c             	mov    0xc(%ebp),%edx
  104580:	8a 01                	mov    (%ecx),%al
  104582:	84 c0                	test   %al,%al
  104584:	74 0c                	je     104592 <strcmp+0x1b>
  104586:	38 02                	cmp    %al,(%edx)
  104588:	75 08                	jne    104592 <strcmp+0x1b>
  10458a:	41                   	inc    %ecx
  10458b:	42                   	inc    %edx
  10458c:	8a 01                	mov    (%ecx),%al
  10458e:	84 c0                	test   %al,%al
  104590:	75 f4                	jne    104586 <strcmp+0xf>
  104592:	0f b6 c0             	movzbl %al,%eax
  104595:	0f b6 12             	movzbl (%edx),%edx
  104598:	29 d0                	sub    %edx,%eax
  10459a:	5d                   	pop    %ebp
  10459b:	c3                   	ret    

0010459c <strnlen>:
  10459c:	55                   	push   %ebp
  10459d:	89 e5                	mov    %esp,%ebp
  10459f:	8b 4d 08             	mov    0x8(%ebp),%ecx
  1045a2:	8b 55 0c             	mov    0xc(%ebp),%edx
  1045a5:	85 d2                	test   %edx,%edx
  1045a7:	74 14                	je     1045bd <strnlen+0x21>
  1045a9:	01 ca                	add    %ecx,%edx
  1045ab:	89 c8                	mov    %ecx,%eax
  1045ad:	80 38 00             	cmpb   $0x0,(%eax)
  1045b0:	74 07                	je     1045b9 <strnlen+0x1d>
  1045b2:	40                   	inc    %eax
  1045b3:	39 d0                	cmp    %edx,%eax
  1045b5:	75 f6                	jne    1045ad <strnlen+0x11>
  1045b7:	89 d0                	mov    %edx,%eax
  1045b9:	29 c8                	sub    %ecx,%eax
  1045bb:	5d                   	pop    %ebp
  1045bc:	c3                   	ret    
  1045bd:	89 c8                	mov    %ecx,%eax
  1045bf:	eb f8                	jmp    1045b9 <strnlen+0x1d>

001045c1 <memcpy>:
  1045c1:	55                   	push   %ebp
  1045c2:	89 e5                	mov    %esp,%ebp
  1045c4:	56                   	push   %esi
  1045c5:	53                   	push   %ebx
  1045c6:	8b 75 08             	mov    0x8(%ebp),%esi
  1045c9:	8b 55 0c             	mov    0xc(%ebp),%edx
  1045cc:	8b 4d 10             	mov    0x10(%ebp),%ecx
  1045cf:	85 c9                	test   %ecx,%ecx
  1045d1:	74 10                	je     1045e3 <memcpy+0x22>
  1045d3:	01 f1                	add    %esi,%ecx
  1045d5:	89 f0                	mov    %esi,%eax
  1045d7:	42                   	inc    %edx
  1045d8:	40                   	inc    %eax
  1045d9:	8a 5a ff             	mov    -0x1(%edx),%bl
  1045dc:	88 58 ff             	mov    %bl,-0x1(%eax)
  1045df:	39 c1                	cmp    %eax,%ecx
  1045e1:	75 f4                	jne    1045d7 <memcpy+0x16>
  1045e3:	89 f0                	mov    %esi,%eax
  1045e5:	5b                   	pop    %ebx
  1045e6:	5e                   	pop    %esi
  1045e7:	5d                   	pop    %ebp
  1045e8:	c3                   	ret    

001045e9 <strlen>:
  1045e9:	55                   	push   %ebp
  1045ea:	89 e5                	mov    %esp,%ebp
  1045ec:	8b 55 08             	mov    0x8(%ebp),%edx
  1045ef:	80 3a 00             	cmpb   $0x0,(%edx)
  1045f2:	74 0c                	je     104600 <strlen+0x17>
  1045f4:	89 d0                	mov    %edx,%eax
  1045f6:	40                   	inc    %eax
  1045f7:	80 38 00             	cmpb   $0x0,(%eax)
  1045fa:	75 fa                	jne    1045f6 <strlen+0xd>
  1045fc:	29 d0                	sub    %edx,%eax
  1045fe:	5d                   	pop    %ebp
  1045ff:	c3                   	ret    
  104600:	89 d0                	mov    %edx,%eax
  104602:	eb f8                	jmp    1045fc <strlen+0x13>

00104604 <strcpy>:
  104604:	55                   	push   %ebp
  104605:	89 e5                	mov    %esp,%ebp
  104607:	53                   	push   %ebx
  104608:	8b 4d 08             	mov    0x8(%ebp),%ecx
  10460b:	8b 5d 0c             	mov    0xc(%ebp),%ebx
  10460e:	b8 00 00 00 00       	mov    $0x0,%eax
  104613:	8a 14 03             	mov    (%ebx,%eax,1),%dl
  104616:	88 14 01             	mov    %dl,(%ecx,%eax,1)
  104619:	40                   	inc    %eax
  10461a:	84 d2                	test   %dl,%dl
  10461c:	75 f5                	jne    104613 <strcpy+0xf>
  10461e:	89 c8                	mov    %ecx,%eax
  104620:	8b 5d fc             	mov    -0x4(%ebp),%ebx
  104623:	c9                   	leave  
  104624:	c3                   	ret    
